ARM GAS  C:\Users\Dell\AppData\Local\Temp\ccer9IQj.s 			page 1


   1              		.cpu cortex-m4
   2              		.arch armv7e-m
   3              		.fpu fpv4-sp-d16
   4              		.eabi_attribute 27, 1
   5              		.eabi_attribute 28, 1
   6              		.eabi_attribute 20, 1
   7              		.eabi_attribute 21, 1
   8              		.eabi_attribute 23, 3
   9              		.eabi_attribute 24, 1
  10              		.eabi_attribute 25, 1
  11              		.eabi_attribute 26, 1
  12              		.eabi_attribute 30, 1
  13              		.eabi_attribute 34, 1
  14              		.eabi_attribute 18, 4
  15              		.file	"VL53L4CD_api.c"
  16              		.text
  17              	.Ltext0:
  18              		.cfi_sections	.debug_frame
  19              		.section	.text.VL53L4CD_GetSWVersion,"ax",%progbits
  20              		.align	1
  21              		.global	VL53L4CD_GetSWVersion
  22              		.syntax unified
  23              		.thumb
  24              		.thumb_func
  26              	VL53L4CD_GetSWVersion:
  27              	.LVL0:
  28              	.LFB130:
  29              		.file 1 "Drivers/VL53L4CD_ULD_Driver/VL53L4CD_api.c"
   1:Drivers/VL53L4CD_ULD_Driver/VL53L4CD_api.c **** /*
   2:Drivers/VL53L4CD_ULD_Driver/VL53L4CD_api.c ****  Copyright (c) 2021, STMicroelectronics - All Rights Reserved
   3:Drivers/VL53L4CD_ULD_Driver/VL53L4CD_api.c **** 
   4:Drivers/VL53L4CD_ULD_Driver/VL53L4CD_api.c ****  This file : part of VL53L4CD Ultra Lite Driver and : dual licensed, either
   5:Drivers/VL53L4CD_ULD_Driver/VL53L4CD_api.c ****  'STMicroelectronics Proprietary license'
   6:Drivers/VL53L4CD_ULD_Driver/VL53L4CD_api.c ****  or 'BSD 3-clause "New" or "Revised" License' , at your option.
   7:Drivers/VL53L4CD_ULD_Driver/VL53L4CD_api.c **** 
   8:Drivers/VL53L4CD_ULD_Driver/VL53L4CD_api.c **** *******************************************************************************
   9:Drivers/VL53L4CD_ULD_Driver/VL53L4CD_api.c **** 
  10:Drivers/VL53L4CD_ULD_Driver/VL53L4CD_api.c ****  'STMicroelectronics Proprietary license'
  11:Drivers/VL53L4CD_ULD_Driver/VL53L4CD_api.c **** 
  12:Drivers/VL53L4CD_ULD_Driver/VL53L4CD_api.c **** *******************************************************************************
  13:Drivers/VL53L4CD_ULD_Driver/VL53L4CD_api.c **** 
  14:Drivers/VL53L4CD_ULD_Driver/VL53L4CD_api.c ****  License terms: STMicroelectronics Proprietary in accordance with licensing
  15:Drivers/VL53L4CD_ULD_Driver/VL53L4CD_api.c ****  terms at www.st.com/sla0081
  16:Drivers/VL53L4CD_ULD_Driver/VL53L4CD_api.c **** 
  17:Drivers/VL53L4CD_ULD_Driver/VL53L4CD_api.c ****  STMicroelectronics confidential
  18:Drivers/VL53L4CD_ULD_Driver/VL53L4CD_api.c ****  Reproduction and Communication of this document : strictly prohibited unless
  19:Drivers/VL53L4CD_ULD_Driver/VL53L4CD_api.c ****  specifically authorized in writing by STMicroelectronics.
  20:Drivers/VL53L4CD_ULD_Driver/VL53L4CD_api.c **** 
  21:Drivers/VL53L4CD_ULD_Driver/VL53L4CD_api.c **** 
  22:Drivers/VL53L4CD_ULD_Driver/VL53L4CD_api.c **** *******************************************************************************
  23:Drivers/VL53L4CD_ULD_Driver/VL53L4CD_api.c **** 
  24:Drivers/VL53L4CD_ULD_Driver/VL53L4CD_api.c ****  Alternatively, VL53L4CD Ultra Lite Driver may be distributed under the terms of
  25:Drivers/VL53L4CD_ULD_Driver/VL53L4CD_api.c ****  'BSD 3-clause "New" or "Revised" License', in which case the following
  26:Drivers/VL53L4CD_ULD_Driver/VL53L4CD_api.c ****  provisions apply instead of the ones mentioned above :
  27:Drivers/VL53L4CD_ULD_Driver/VL53L4CD_api.c **** 
  28:Drivers/VL53L4CD_ULD_Driver/VL53L4CD_api.c **** *******************************************************************************
  29:Drivers/VL53L4CD_ULD_Driver/VL53L4CD_api.c **** 
ARM GAS  C:\Users\Dell\AppData\Local\Temp\ccer9IQj.s 			page 2


  30:Drivers/VL53L4CD_ULD_Driver/VL53L4CD_api.c ****  License terms: BSD 3-clause "New" or "Revised" License.
  31:Drivers/VL53L4CD_ULD_Driver/VL53L4CD_api.c **** 
  32:Drivers/VL53L4CD_ULD_Driver/VL53L4CD_api.c ****  Redistribution and use in source and binary forms, with or without
  33:Drivers/VL53L4CD_ULD_Driver/VL53L4CD_api.c ****  modification, are permitted provided that the following conditions are met:
  34:Drivers/VL53L4CD_ULD_Driver/VL53L4CD_api.c **** 
  35:Drivers/VL53L4CD_ULD_Driver/VL53L4CD_api.c ****  1. Redistributions of source code must retain the above copyright notice, this
  36:Drivers/VL53L4CD_ULD_Driver/VL53L4CD_api.c ****  list of conditions and the following disclaimer.
  37:Drivers/VL53L4CD_ULD_Driver/VL53L4CD_api.c **** 
  38:Drivers/VL53L4CD_ULD_Driver/VL53L4CD_api.c ****  2. Redistributions in binary form must reproduce the above copyright notice,
  39:Drivers/VL53L4CD_ULD_Driver/VL53L4CD_api.c ****  this list of conditions and the following disclaimer in the documentation
  40:Drivers/VL53L4CD_ULD_Driver/VL53L4CD_api.c ****  and/or other materials provided with the distribution.
  41:Drivers/VL53L4CD_ULD_Driver/VL53L4CD_api.c **** 
  42:Drivers/VL53L4CD_ULD_Driver/VL53L4CD_api.c ****  3. Neither the name of the copyright holder nor the names of its contributors
  43:Drivers/VL53L4CD_ULD_Driver/VL53L4CD_api.c ****  may be used to endorse or promote products derived from this software
  44:Drivers/VL53L4CD_ULD_Driver/VL53L4CD_api.c ****  without specific prior written permission.
  45:Drivers/VL53L4CD_ULD_Driver/VL53L4CD_api.c **** 
  46:Drivers/VL53L4CD_ULD_Driver/VL53L4CD_api.c ****  THIS SOFTWARE IS PROVIDED BY THE COPYRIGHT HOLDERS AND CONTRIBUTORS "AS IS"
  47:Drivers/VL53L4CD_ULD_Driver/VL53L4CD_api.c ****  AND ANY EXPRESS OR IMPLIED WARRANTIES, INCLUDING, BUT NOT LIMITED TO, THE
  48:Drivers/VL53L4CD_ULD_Driver/VL53L4CD_api.c ****  IMPLIED WARRANTIES OF MERCHANTABILITY AND FITNESS FOR A PARTICULAR PURPOSE ARE
  49:Drivers/VL53L4CD_ULD_Driver/VL53L4CD_api.c ****  DISCLAIMED. IN NO EVENT SHALL THE COPYRIGHT HOLDER OR CONTRIBUTORS BE LIABLE
  50:Drivers/VL53L4CD_ULD_Driver/VL53L4CD_api.c ****  FOR ANY DIRECT, INDIRECT, INCIDENTAL, SPECIAL, EXEMPLARY, OR CONSEQUENTIAL
  51:Drivers/VL53L4CD_ULD_Driver/VL53L4CD_api.c ****  DAMAGES (INCLUDING, BUT NOT LIMITED TO, PROCUREMENT OF SUBSTITUTE GOODS OR
  52:Drivers/VL53L4CD_ULD_Driver/VL53L4CD_api.c ****  SERVICES; LOSS OF USE, DATA, OR PROFITS; OR BUSINESS INTERRUPTION) HOWEVER
  53:Drivers/VL53L4CD_ULD_Driver/VL53L4CD_api.c ****  CAUSED AND ON ANY THEORY OF LIABILITY, WHETHER IN CONTRACT, STRICT LIABILITY,
  54:Drivers/VL53L4CD_ULD_Driver/VL53L4CD_api.c ****  OR TORT (INCLUDING NEGLIGENCE OR OTHERWISE) ARISING IN ANY WAY OUT OF THE USE
  55:Drivers/VL53L4CD_ULD_Driver/VL53L4CD_api.c ****  OF THIS SOFTWARE, EVEN IF ADVISED OF THE POSSIBILITY OF SUCH DAMAGE.
  56:Drivers/VL53L4CD_ULD_Driver/VL53L4CD_api.c **** *******************************************************************************
  57:Drivers/VL53L4CD_ULD_Driver/VL53L4CD_api.c **** */
  58:Drivers/VL53L4CD_ULD_Driver/VL53L4CD_api.c **** 
  59:Drivers/VL53L4CD_ULD_Driver/VL53L4CD_api.c **** /**
  60:Drivers/VL53L4CD_ULD_Driver/VL53L4CD_api.c ****  * @file  vl53l4cd_api.c
  61:Drivers/VL53L4CD_ULD_Driver/VL53L4CD_api.c ****  * @brief Functions implementation
  62:Drivers/VL53L4CD_ULD_Driver/VL53L4CD_api.c ****  */
  63:Drivers/VL53L4CD_ULD_Driver/VL53L4CD_api.c **** 
  64:Drivers/VL53L4CD_ULD_Driver/VL53L4CD_api.c **** #include <string.h>
  65:Drivers/VL53L4CD_ULD_Driver/VL53L4CD_api.c **** #include <math.h>
  66:Drivers/VL53L4CD_ULD_Driver/VL53L4CD_api.c **** #include "vl53l4cd_api.h"
  67:Drivers/VL53L4CD_ULD_Driver/VL53L4CD_api.c **** 
  68:Drivers/VL53L4CD_ULD_Driver/VL53L4CD_api.c **** static const uint8_t VL53L4CD_DEFAULT_CONFIGURATION[] = {
  69:Drivers/VL53L4CD_ULD_Driver/VL53L4CD_api.c **** 	#ifdef VL53L4CD_I2C_FAST_MODE_PLUS
  70:Drivers/VL53L4CD_ULD_Driver/VL53L4CD_api.c **** 	0x12, /* 0x2d : set bit 2 and 5 to 1 for fast plus mode (1MHz I2C),
  71:Drivers/VL53L4CD_ULD_Driver/VL53L4CD_api.c **** 	 else don't touch */
  72:Drivers/VL53L4CD_ULD_Driver/VL53L4CD_api.c **** 	#else
  73:Drivers/VL53L4CD_ULD_Driver/VL53L4CD_api.c **** 	0x00, /* 0x2d : set bit 2 and 5 to 1 for fast plus mode (1MHz I2C),
  74:Drivers/VL53L4CD_ULD_Driver/VL53L4CD_api.c **** 	 else don't touch */
  75:Drivers/VL53L4CD_ULD_Driver/VL53L4CD_api.c **** 	#endif
  76:Drivers/VL53L4CD_ULD_Driver/VL53L4CD_api.c **** 	0x00, /* 0x2e : bit 0 if I2C pulled up at 1.8V, else set bit 0 to 1
  77:Drivers/VL53L4CD_ULD_Driver/VL53L4CD_api.c **** 	 (pull up at AVDD) */
  78:Drivers/VL53L4CD_ULD_Driver/VL53L4CD_api.c **** 	0x00, /* 0x2f : bit 0 if GPIO pulled up at 1.8V, else set bit 0 to 1
  79:Drivers/VL53L4CD_ULD_Driver/VL53L4CD_api.c **** 	(pull up at AVDD) */
  80:Drivers/VL53L4CD_ULD_Driver/VL53L4CD_api.c **** 	0x11, /* 0x30 : set bit 4 to 0 for active high interrupt and 1 for active low
  81:Drivers/VL53L4CD_ULD_Driver/VL53L4CD_api.c **** 	(bits 3:0 must be 0x1), use SetInterruptPolarity() */
  82:Drivers/VL53L4CD_ULD_Driver/VL53L4CD_api.c **** 	0x02, /* 0x31 : bit 1 = interrupt depending on the polarity,
  83:Drivers/VL53L4CD_ULD_Driver/VL53L4CD_api.c **** 	use CheckForDataReady() */
  84:Drivers/VL53L4CD_ULD_Driver/VL53L4CD_api.c **** 	0x00, /* 0x32 : not user-modifiable */
  85:Drivers/VL53L4CD_ULD_Driver/VL53L4CD_api.c **** 	0x02, /* 0x33 : not user-modifiable */
  86:Drivers/VL53L4CD_ULD_Driver/VL53L4CD_api.c **** 	0x08, /* 0x34 : not user-modifiable */
ARM GAS  C:\Users\Dell\AppData\Local\Temp\ccer9IQj.s 			page 3


  87:Drivers/VL53L4CD_ULD_Driver/VL53L4CD_api.c **** 	0x00, /* 0x35 : not user-modifiable */
  88:Drivers/VL53L4CD_ULD_Driver/VL53L4CD_api.c **** 	0x08, /* 0x36 : not user-modifiable */
  89:Drivers/VL53L4CD_ULD_Driver/VL53L4CD_api.c **** 	0x10, /* 0x37 : not user-modifiable */
  90:Drivers/VL53L4CD_ULD_Driver/VL53L4CD_api.c **** 	0x01, /* 0x38 : not user-modifiable */
  91:Drivers/VL53L4CD_ULD_Driver/VL53L4CD_api.c **** 	0x01, /* 0x39 : not user-modifiable */
  92:Drivers/VL53L4CD_ULD_Driver/VL53L4CD_api.c **** 	0x00, /* 0x3a : not user-modifiable */
  93:Drivers/VL53L4CD_ULD_Driver/VL53L4CD_api.c **** 	0x00, /* 0x3b : not user-modifiable */
  94:Drivers/VL53L4CD_ULD_Driver/VL53L4CD_api.c **** 	0x00, /* 0x3c : not user-modifiable */
  95:Drivers/VL53L4CD_ULD_Driver/VL53L4CD_api.c **** 	0x00, /* 0x3d : not user-modifiable */
  96:Drivers/VL53L4CD_ULD_Driver/VL53L4CD_api.c **** 	0xff, /* 0x3e : not user-modifiable */
  97:Drivers/VL53L4CD_ULD_Driver/VL53L4CD_api.c **** 	0x00, /* 0x3f : not user-modifiable */
  98:Drivers/VL53L4CD_ULD_Driver/VL53L4CD_api.c **** 	0x0F, /* 0x40 : not user-modifiable */
  99:Drivers/VL53L4CD_ULD_Driver/VL53L4CD_api.c **** 	0x00, /* 0x41 : not user-modifiable */
 100:Drivers/VL53L4CD_ULD_Driver/VL53L4CD_api.c **** 	0x00, /* 0x42 : not user-modifiable */
 101:Drivers/VL53L4CD_ULD_Driver/VL53L4CD_api.c **** 	0x00, /* 0x43 : not user-modifiable */
 102:Drivers/VL53L4CD_ULD_Driver/VL53L4CD_api.c **** 	0x00, /* 0x44 : not user-modifiable */
 103:Drivers/VL53L4CD_ULD_Driver/VL53L4CD_api.c **** 	0x00, /* 0x45 : not user-modifiable */
 104:Drivers/VL53L4CD_ULD_Driver/VL53L4CD_api.c **** 	0x20, /* 0x46 : interrupt configuration 0->level low detection, 1-> level high,
 105:Drivers/VL53L4CD_ULD_Driver/VL53L4CD_api.c **** 	2-> Out of window, 3->In window, 0x20-> New sample ready , TBC */
 106:Drivers/VL53L4CD_ULD_Driver/VL53L4CD_api.c **** 	0x0b, /* 0x47 : not user-modifiable */
 107:Drivers/VL53L4CD_ULD_Driver/VL53L4CD_api.c **** 	0x00, /* 0x48 : not user-modifiable */
 108:Drivers/VL53L4CD_ULD_Driver/VL53L4CD_api.c **** 	0x00, /* 0x49 : not user-modifiable */
 109:Drivers/VL53L4CD_ULD_Driver/VL53L4CD_api.c **** 	0x02, /* 0x4a : not user-modifiable */
 110:Drivers/VL53L4CD_ULD_Driver/VL53L4CD_api.c **** 	0x14, /* 0x4b : not user-modifiable */
 111:Drivers/VL53L4CD_ULD_Driver/VL53L4CD_api.c **** 	0x21, /* 0x4c : not user-modifiable */
 112:Drivers/VL53L4CD_ULD_Driver/VL53L4CD_api.c **** 	0x00, /* 0x4d : not user-modifiable */
 113:Drivers/VL53L4CD_ULD_Driver/VL53L4CD_api.c **** 	0x00, /* 0x4e : not user-modifiable */
 114:Drivers/VL53L4CD_ULD_Driver/VL53L4CD_api.c **** 	0x05, /* 0x4f : not user-modifiable */
 115:Drivers/VL53L4CD_ULD_Driver/VL53L4CD_api.c **** 	0x00, /* 0x50 : not user-modifiable */
 116:Drivers/VL53L4CD_ULD_Driver/VL53L4CD_api.c **** 	0x00, /* 0x51 : not user-modifiable */
 117:Drivers/VL53L4CD_ULD_Driver/VL53L4CD_api.c **** 	0x00, /* 0x52 : not user-modifiable */
 118:Drivers/VL53L4CD_ULD_Driver/VL53L4CD_api.c **** 	0x00, /* 0x53 : not user-modifiable */
 119:Drivers/VL53L4CD_ULD_Driver/VL53L4CD_api.c **** 	0xc8, /* 0x54 : not user-modifiable */
 120:Drivers/VL53L4CD_ULD_Driver/VL53L4CD_api.c **** 	0x00, /* 0x55 : not user-modifiable */
 121:Drivers/VL53L4CD_ULD_Driver/VL53L4CD_api.c **** 	0x00, /* 0x56 : not user-modifiable */
 122:Drivers/VL53L4CD_ULD_Driver/VL53L4CD_api.c **** 	0x38, /* 0x57 : not user-modifiable */
 123:Drivers/VL53L4CD_ULD_Driver/VL53L4CD_api.c **** 	0xff, /* 0x58 : not user-modifiable */
 124:Drivers/VL53L4CD_ULD_Driver/VL53L4CD_api.c **** 	0x01, /* 0x59 : not user-modifiable */
 125:Drivers/VL53L4CD_ULD_Driver/VL53L4CD_api.c **** 	0x00, /* 0x5a : not user-modifiable */
 126:Drivers/VL53L4CD_ULD_Driver/VL53L4CD_api.c **** 	0x08, /* 0x5b : not user-modifiable */
 127:Drivers/VL53L4CD_ULD_Driver/VL53L4CD_api.c **** 	0x00, /* 0x5c : not user-modifiable */
 128:Drivers/VL53L4CD_ULD_Driver/VL53L4CD_api.c **** 	0x00, /* 0x5d : not user-modifiable */
 129:Drivers/VL53L4CD_ULD_Driver/VL53L4CD_api.c **** 	0x01, /* 0x5e : not user-modifiable */
 130:Drivers/VL53L4CD_ULD_Driver/VL53L4CD_api.c **** 	0xcc, /* 0x5f : not user-modifiable */
 131:Drivers/VL53L4CD_ULD_Driver/VL53L4CD_api.c **** 	0x07, /* 0x60 : not user-modifiable */
 132:Drivers/VL53L4CD_ULD_Driver/VL53L4CD_api.c **** 	0x01, /* 0x61 : not user-modifiable */
 133:Drivers/VL53L4CD_ULD_Driver/VL53L4CD_api.c **** 	0xf1, /* 0x62 : not user-modifiable */
 134:Drivers/VL53L4CD_ULD_Driver/VL53L4CD_api.c **** 	0x05, /* 0x63 : not user-modifiable */
 135:Drivers/VL53L4CD_ULD_Driver/VL53L4CD_api.c **** 	0x00, /* 0x64 : Sigma threshold MSB (mm in 14.2 format for MSB+LSB),
 136:Drivers/VL53L4CD_ULD_Driver/VL53L4CD_api.c **** 	 use SetSigmaThreshold(), default value 90 mm  */
 137:Drivers/VL53L4CD_ULD_Driver/VL53L4CD_api.c **** 	0xa0, /* 0x65 : Sigma threshold LSB */
 138:Drivers/VL53L4CD_ULD_Driver/VL53L4CD_api.c **** 	0x00, /* 0x66 : Min count Rate MSB (MCPS in 9.7 format for MSB+LSB),
 139:Drivers/VL53L4CD_ULD_Driver/VL53L4CD_api.c **** 	 use SetSignalThreshold() */
 140:Drivers/VL53L4CD_ULD_Driver/VL53L4CD_api.c **** 	0x80, /* 0x67 : Min count Rate LSB */
 141:Drivers/VL53L4CD_ULD_Driver/VL53L4CD_api.c **** 	0x08, /* 0x68 : not user-modifiable */
 142:Drivers/VL53L4CD_ULD_Driver/VL53L4CD_api.c **** 	0x38, /* 0x69 : not user-modifiable */
 143:Drivers/VL53L4CD_ULD_Driver/VL53L4CD_api.c **** 	0x00, /* 0x6a : not user-modifiable */
ARM GAS  C:\Users\Dell\AppData\Local\Temp\ccer9IQj.s 			page 4


 144:Drivers/VL53L4CD_ULD_Driver/VL53L4CD_api.c **** 	0x00, /* 0x6b : not user-modifiable */
 145:Drivers/VL53L4CD_ULD_Driver/VL53L4CD_api.c **** 	0x00, /* 0x6c : Intermeasurement period MSB, 32 bits register,
 146:Drivers/VL53L4CD_ULD_Driver/VL53L4CD_api.c **** 	 use SetIntermeasurementInMs() */
 147:Drivers/VL53L4CD_ULD_Driver/VL53L4CD_api.c **** 	0x00, /* 0x6d : Intermeasurement period */
 148:Drivers/VL53L4CD_ULD_Driver/VL53L4CD_api.c **** 	0x0f, /* 0x6e : Intermeasurement period */
 149:Drivers/VL53L4CD_ULD_Driver/VL53L4CD_api.c **** 	0x89, /* 0x6f : Intermeasurement period LSB */
 150:Drivers/VL53L4CD_ULD_Driver/VL53L4CD_api.c **** 	0x00, /* 0x70 : not user-modifiable */
 151:Drivers/VL53L4CD_ULD_Driver/VL53L4CD_api.c **** 	0x00, /* 0x71 : not user-modifiable */
 152:Drivers/VL53L4CD_ULD_Driver/VL53L4CD_api.c **** 	0x00, /* 0x72 : distance threshold high MSB (in mm, MSB+LSB),
 153:Drivers/VL53L4CD_ULD_Driver/VL53L4CD_api.c **** 	 use SetD:tanceThreshold() */
 154:Drivers/VL53L4CD_ULD_Driver/VL53L4CD_api.c **** 	0x00, /* 0x73 : distance threshold high LSB */
 155:Drivers/VL53L4CD_ULD_Driver/VL53L4CD_api.c **** 	0x00, /* 0x74 : distance threshold low MSB ( in mm, MSB+LSB),
 156:Drivers/VL53L4CD_ULD_Driver/VL53L4CD_api.c **** 	 use SetD:tanceThreshold() */
 157:Drivers/VL53L4CD_ULD_Driver/VL53L4CD_api.c **** 	0x00, /* 0x75 : distance threshold low LSB */
 158:Drivers/VL53L4CD_ULD_Driver/VL53L4CD_api.c **** 	0x00, /* 0x76 : not user-modifiable */
 159:Drivers/VL53L4CD_ULD_Driver/VL53L4CD_api.c **** 	0x01, /* 0x77 : not user-modifiable */
 160:Drivers/VL53L4CD_ULD_Driver/VL53L4CD_api.c **** 	0x07, /* 0x78 : not user-modifiable */
 161:Drivers/VL53L4CD_ULD_Driver/VL53L4CD_api.c **** 	0x05, /* 0x79 : not user-modifiable */
 162:Drivers/VL53L4CD_ULD_Driver/VL53L4CD_api.c **** 	0x06, /* 0x7a : not user-modifiable */
 163:Drivers/VL53L4CD_ULD_Driver/VL53L4CD_api.c **** 	0x06, /* 0x7b : not user-modifiable */
 164:Drivers/VL53L4CD_ULD_Driver/VL53L4CD_api.c **** 	0x00, /* 0x7c : not user-modifiable */
 165:Drivers/VL53L4CD_ULD_Driver/VL53L4CD_api.c **** 	0x00, /* 0x7d : not user-modifiable */
 166:Drivers/VL53L4CD_ULD_Driver/VL53L4CD_api.c **** 	0x02, /* 0x7e : not user-modifiable */
 167:Drivers/VL53L4CD_ULD_Driver/VL53L4CD_api.c **** 	0xc7, /* 0x7f : not user-modifiable */
 168:Drivers/VL53L4CD_ULD_Driver/VL53L4CD_api.c **** 	0xff, /* 0x80 : not user-modifiable */
 169:Drivers/VL53L4CD_ULD_Driver/VL53L4CD_api.c **** 	0x9B, /* 0x81 : not user-modifiable */
 170:Drivers/VL53L4CD_ULD_Driver/VL53L4CD_api.c **** 	0x00, /* 0x82 : not user-modifiable */
 171:Drivers/VL53L4CD_ULD_Driver/VL53L4CD_api.c **** 	0x00, /* 0x83 : not user-modifiable */
 172:Drivers/VL53L4CD_ULD_Driver/VL53L4CD_api.c **** 	0x00, /* 0x84 : not user-modifiable */
 173:Drivers/VL53L4CD_ULD_Driver/VL53L4CD_api.c **** 	0x01, /* 0x85 : not user-modifiable */
 174:Drivers/VL53L4CD_ULD_Driver/VL53L4CD_api.c **** 	0x00, /* 0x86 : clear interrupt, use ClearInterrupt() */
 175:Drivers/VL53L4CD_ULD_Driver/VL53L4CD_api.c **** 	0x00  /* 0x87 : start ranging, use StartRanging() or StopRanging(),
 176:Drivers/VL53L4CD_ULD_Driver/VL53L4CD_api.c **** 	 If you want an automatic start after VL53L4CD_init() call,
 177:Drivers/VL53L4CD_ULD_Driver/VL53L4CD_api.c **** 	  put 0x40 in location 0x87 */
 178:Drivers/VL53L4CD_ULD_Driver/VL53L4CD_api.c **** };
 179:Drivers/VL53L4CD_ULD_Driver/VL53L4CD_api.c **** 
 180:Drivers/VL53L4CD_ULD_Driver/VL53L4CD_api.c **** VL53L4CD_Error VL53L4CD_GetSWVersion(
 181:Drivers/VL53L4CD_ULD_Driver/VL53L4CD_api.c **** 		VL53L4CD_Version_t *p_Version)
 182:Drivers/VL53L4CD_ULD_Driver/VL53L4CD_api.c **** {
  30              		.loc 1 182 1 view -0
  31              		.cfi_startproc
  32              		@ args = 0, pretend = 0, frame = 0
  33              		@ frame_needed = 0, uses_anonymous_args = 0
  34              		@ link register save eliminated.
  35              		.loc 1 182 1 is_stmt 0 view .LVU1
  36 0000 0346     		mov	r3, r0
 183:Drivers/VL53L4CD_ULD_Driver/VL53L4CD_api.c **** 	VL53L4CD_Error Status = VL53L4CD_ERROR_NONE;
  37              		.loc 1 183 2 is_stmt 1 view .LVU2
  38              	.LVL1:
 184:Drivers/VL53L4CD_ULD_Driver/VL53L4CD_api.c **** 
 185:Drivers/VL53L4CD_ULD_Driver/VL53L4CD_api.c **** 	p_Version->major = VL53L4CD_IMPLEMENTATION_VER_MAJOR;
  39              		.loc 1 185 2 view .LVU3
  40              		.loc 1 185 19 is_stmt 0 view .LVU4
  41 0002 0222     		movs	r2, #2
  42 0004 0270     		strb	r2, [r0]
 186:Drivers/VL53L4CD_ULD_Driver/VL53L4CD_api.c **** 	p_Version->minor = VL53L4CD_IMPLEMENTATION_VER_MINOR;
  43              		.loc 1 186 2 is_stmt 1 view .LVU5
ARM GAS  C:\Users\Dell\AppData\Local\Temp\ccer9IQj.s 			page 5


  44              		.loc 1 186 19 is_stmt 0 view .LVU6
  45 0006 0122     		movs	r2, #1
  46 0008 4270     		strb	r2, [r0, #1]
 187:Drivers/VL53L4CD_ULD_Driver/VL53L4CD_api.c **** 	p_Version->build = VL53L4CD_IMPLEMENTATION_VER_BUILD;
  47              		.loc 1 187 2 is_stmt 1 view .LVU7
  48              		.loc 1 187 19 is_stmt 0 view .LVU8
  49 000a 0020     		movs	r0, #0
  50              	.LVL2:
  51              		.loc 1 187 19 view .LVU9
  52 000c 9870     		strb	r0, [r3, #2]
 188:Drivers/VL53L4CD_ULD_Driver/VL53L4CD_api.c **** 	p_Version->revision = VL53L4CD_IMPLEMENTATION_VER_REVISION;
  53              		.loc 1 188 2 is_stmt 1 view .LVU10
  54              		.loc 1 188 22 is_stmt 0 view .LVU11
  55 000e 5860     		str	r0, [r3, #4]
 189:Drivers/VL53L4CD_ULD_Driver/VL53L4CD_api.c **** 	return Status;
  56              		.loc 1 189 2 is_stmt 1 view .LVU12
 190:Drivers/VL53L4CD_ULD_Driver/VL53L4CD_api.c **** }
  57              		.loc 1 190 1 is_stmt 0 view .LVU13
  58 0010 7047     		bx	lr
  59              		.cfi_endproc
  60              	.LFE130:
  62              		.section	.text.VL53L4CD_SetI2CAddress,"ax",%progbits
  63              		.align	1
  64              		.global	VL53L4CD_SetI2CAddress
  65              		.syntax unified
  66              		.thumb
  67              		.thumb_func
  69              	VL53L4CD_SetI2CAddress:
  70              	.LVL3:
  71              	.LFB131:
 191:Drivers/VL53L4CD_ULD_Driver/VL53L4CD_api.c **** 
 192:Drivers/VL53L4CD_ULD_Driver/VL53L4CD_api.c **** VL53L4CD_Error VL53L4CD_SetI2CAddress(
 193:Drivers/VL53L4CD_ULD_Driver/VL53L4CD_api.c **** 		Dev_t dev,
 194:Drivers/VL53L4CD_ULD_Driver/VL53L4CD_api.c **** 		uint8_t new_address)
 195:Drivers/VL53L4CD_ULD_Driver/VL53L4CD_api.c **** {
  72              		.loc 1 195 1 is_stmt 1 view -0
  73              		.cfi_startproc
  74              		@ args = 0, pretend = 0, frame = 0
  75              		@ frame_needed = 0, uses_anonymous_args = 0
  76              		.loc 1 195 1 is_stmt 0 view .LVU15
  77 0000 08B5     		push	{r3, lr}
  78              	.LCFI0:
  79              		.cfi_def_cfa_offset 8
  80              		.cfi_offset 3, -8
  81              		.cfi_offset 14, -4
 196:Drivers/VL53L4CD_ULD_Driver/VL53L4CD_api.c **** 	VL53L4CD_Error status = VL53L4CD_ERROR_NONE;
  82              		.loc 1 196 2 is_stmt 1 view .LVU16
  83              	.LVL4:
 197:Drivers/VL53L4CD_ULD_Driver/VL53L4CD_api.c **** 
 198:Drivers/VL53L4CD_ULD_Driver/VL53L4CD_api.c **** 	status |= VL53L4CD_WrByte(dev, VL53L4CD_I2C_SLAVE__DEVICE_ADDRESS,
  84              		.loc 1 198 2 view .LVU17
  85              		.loc 1 198 12 is_stmt 0 view .LVU18
  86 0002 4A08     		lsrs	r2, r1, #1
  87 0004 0121     		movs	r1, #1
  88              	.LVL5:
  89              		.loc 1 198 12 view .LVU19
  90 0006 FFF7FEFF 		bl	VL53L4CD_WrByte
ARM GAS  C:\Users\Dell\AppData\Local\Temp\ccer9IQj.s 			page 6


  91              	.LVL6:
 199:Drivers/VL53L4CD_ULD_Driver/VL53L4CD_api.c **** 			(uint8_t)(new_address >> (uint8_t)1));
 200:Drivers/VL53L4CD_ULD_Driver/VL53L4CD_api.c **** 	return status;
  92              		.loc 1 200 2 is_stmt 1 view .LVU20
 201:Drivers/VL53L4CD_ULD_Driver/VL53L4CD_api.c **** }
  93              		.loc 1 201 1 is_stmt 0 view .LVU21
  94 000a 08BD     		pop	{r3, pc}
  95              		.cfi_endproc
  96              	.LFE131:
  98              		.section	.text.VL53L4CD_GetSensorId,"ax",%progbits
  99              		.align	1
 100              		.global	VL53L4CD_GetSensorId
 101              		.syntax unified
 102              		.thumb
 103              		.thumb_func
 105              	VL53L4CD_GetSensorId:
 106              	.LVL7:
 107              	.LFB132:
 202:Drivers/VL53L4CD_ULD_Driver/VL53L4CD_api.c **** 
 203:Drivers/VL53L4CD_ULD_Driver/VL53L4CD_api.c **** VL53L4CD_Error VL53L4CD_GetSensorId(
 204:Drivers/VL53L4CD_ULD_Driver/VL53L4CD_api.c **** 		Dev_t dev,
 205:Drivers/VL53L4CD_ULD_Driver/VL53L4CD_api.c **** 		uint16_t *p_id)
 206:Drivers/VL53L4CD_ULD_Driver/VL53L4CD_api.c **** {
 108              		.loc 1 206 1 is_stmt 1 view -0
 109              		.cfi_startproc
 110              		@ args = 0, pretend = 0, frame = 0
 111              		@ frame_needed = 0, uses_anonymous_args = 0
 112              		.loc 1 206 1 is_stmt 0 view .LVU23
 113 0000 08B5     		push	{r3, lr}
 114              	.LCFI1:
 115              		.cfi_def_cfa_offset 8
 116              		.cfi_offset 3, -8
 117              		.cfi_offset 14, -4
 118 0002 0A46     		mov	r2, r1
 207:Drivers/VL53L4CD_ULD_Driver/VL53L4CD_api.c **** 	VL53L4CD_Error status = VL53L4CD_ERROR_NONE;
 119              		.loc 1 207 2 is_stmt 1 view .LVU24
 120              	.LVL8:
 208:Drivers/VL53L4CD_ULD_Driver/VL53L4CD_api.c **** 
 209:Drivers/VL53L4CD_ULD_Driver/VL53L4CD_api.c **** 	status |= VL53L4CD_RdWord(dev, VL53L4CD_IDENTIFICATION__MODEL_ID, p_id);
 121              		.loc 1 209 2 view .LVU25
 122              		.loc 1 209 12 is_stmt 0 view .LVU26
 123 0004 40F20F11 		movw	r1, #271
 124              	.LVL9:
 125              		.loc 1 209 12 view .LVU27
 126 0008 FFF7FEFF 		bl	VL53L4CD_RdWord
 127              	.LVL10:
 210:Drivers/VL53L4CD_ULD_Driver/VL53L4CD_api.c **** 	return status;
 128              		.loc 1 210 2 is_stmt 1 view .LVU28
 211:Drivers/VL53L4CD_ULD_Driver/VL53L4CD_api.c **** }
 129              		.loc 1 211 1 is_stmt 0 view .LVU29
 130 000c 08BD     		pop	{r3, pc}
 131              		.cfi_endproc
 132              	.LFE132:
 134              		.section	.text.VL53L4CD_ClearInterrupt,"ax",%progbits
 135              		.align	1
 136              		.global	VL53L4CD_ClearInterrupt
 137              		.syntax unified
ARM GAS  C:\Users\Dell\AppData\Local\Temp\ccer9IQj.s 			page 7


 138              		.thumb
 139              		.thumb_func
 141              	VL53L4CD_ClearInterrupt:
 142              	.LVL11:
 143              	.LFB134:
 212:Drivers/VL53L4CD_ULD_Driver/VL53L4CD_api.c **** 
 213:Drivers/VL53L4CD_ULD_Driver/VL53L4CD_api.c **** VL53L4CD_Error VL53L4CD_SensorInit(
 214:Drivers/VL53L4CD_ULD_Driver/VL53L4CD_api.c **** 		Dev_t dev)
 215:Drivers/VL53L4CD_ULD_Driver/VL53L4CD_api.c **** {
 216:Drivers/VL53L4CD_ULD_Driver/VL53L4CD_api.c **** 	VL53L4CD_Error status = VL53L4CD_ERROR_NONE;
 217:Drivers/VL53L4CD_ULD_Driver/VL53L4CD_api.c **** 	uint8_t Addr, tmp;
 218:Drivers/VL53L4CD_ULD_Driver/VL53L4CD_api.c **** 	uint8_t continue_loop = 1;
 219:Drivers/VL53L4CD_ULD_Driver/VL53L4CD_api.c **** 	uint16_t i = 0;
 220:Drivers/VL53L4CD_ULD_Driver/VL53L4CD_api.c **** 
 221:Drivers/VL53L4CD_ULD_Driver/VL53L4CD_api.c **** 	do{
 222:Drivers/VL53L4CD_ULD_Driver/VL53L4CD_api.c **** 		status |= VL53L4CD_RdByte(dev,
 223:Drivers/VL53L4CD_ULD_Driver/VL53L4CD_api.c **** 				VL53L4CD_FIRMWARE__SYSTEM_STATUS, &tmp);
 224:Drivers/VL53L4CD_ULD_Driver/VL53L4CD_api.c **** 
 225:Drivers/VL53L4CD_ULD_Driver/VL53L4CD_api.c **** 		if(tmp == (uint8_t)0x3) /* Sensor booted */
 226:Drivers/VL53L4CD_ULD_Driver/VL53L4CD_api.c **** 		{
 227:Drivers/VL53L4CD_ULD_Driver/VL53L4CD_api.c **** 			continue_loop = (uint8_t)0;
 228:Drivers/VL53L4CD_ULD_Driver/VL53L4CD_api.c **** 		}
 229:Drivers/VL53L4CD_ULD_Driver/VL53L4CD_api.c **** 		else if(i < (uint16_t)1000)       /* Wait for boot */
 230:Drivers/VL53L4CD_ULD_Driver/VL53L4CD_api.c **** 		{
 231:Drivers/VL53L4CD_ULD_Driver/VL53L4CD_api.c **** 			i++;
 232:Drivers/VL53L4CD_ULD_Driver/VL53L4CD_api.c **** 		}
 233:Drivers/VL53L4CD_ULD_Driver/VL53L4CD_api.c **** 		else /* Timeout 1000ms reached */
 234:Drivers/VL53L4CD_ULD_Driver/VL53L4CD_api.c **** 		{
 235:Drivers/VL53L4CD_ULD_Driver/VL53L4CD_api.c **** 			continue_loop = (uint8_t)0;
 236:Drivers/VL53L4CD_ULD_Driver/VL53L4CD_api.c **** 			status |= (uint8_t)VL53L4CD_ERROR_TIMEOUT;
 237:Drivers/VL53L4CD_ULD_Driver/VL53L4CD_api.c **** 		}
 238:Drivers/VL53L4CD_ULD_Driver/VL53L4CD_api.c **** 		WaitMs(dev, 1);
 239:Drivers/VL53L4CD_ULD_Driver/VL53L4CD_api.c **** 	}while(continue_loop == (uint8_t)1);
 240:Drivers/VL53L4CD_ULD_Driver/VL53L4CD_api.c **** 
 241:Drivers/VL53L4CD_ULD_Driver/VL53L4CD_api.c **** 	/* Load default configuration */
 242:Drivers/VL53L4CD_ULD_Driver/VL53L4CD_api.c **** 	for (Addr = (uint8_t)0x2D; Addr <= (uint8_t)0x87; Addr++)
 243:Drivers/VL53L4CD_ULD_Driver/VL53L4CD_api.c **** 	{
 244:Drivers/VL53L4CD_ULD_Driver/VL53L4CD_api.c **** 		status |= VL53L4CD_WrByte(dev, Addr,
 245:Drivers/VL53L4CD_ULD_Driver/VL53L4CD_api.c **** 				VL53L4CD_DEFAULT_CONFIGURATION[
 246:Drivers/VL53L4CD_ULD_Driver/VL53L4CD_api.c ****                                   Addr - (uint8_t)0x2D]);
 247:Drivers/VL53L4CD_ULD_Driver/VL53L4CD_api.c **** 	}
 248:Drivers/VL53L4CD_ULD_Driver/VL53L4CD_api.c **** 
 249:Drivers/VL53L4CD_ULD_Driver/VL53L4CD_api.c **** 	/* Start VHV */
 250:Drivers/VL53L4CD_ULD_Driver/VL53L4CD_api.c **** 	status |= VL53L4CD_WrByte(dev, VL53L4CD_SYSTEM_START, (uint8_t)0x40);
 251:Drivers/VL53L4CD_ULD_Driver/VL53L4CD_api.c **** 	i  = (uint8_t)0;
 252:Drivers/VL53L4CD_ULD_Driver/VL53L4CD_api.c **** 	continue_loop = (uint8_t)1;
 253:Drivers/VL53L4CD_ULD_Driver/VL53L4CD_api.c **** 	do{
 254:Drivers/VL53L4CD_ULD_Driver/VL53L4CD_api.c **** 		status |= VL53L4CD_CheckForDataReady(dev, &tmp);
 255:Drivers/VL53L4CD_ULD_Driver/VL53L4CD_api.c **** 		if(tmp == (uint8_t)1) /* Data ready */
 256:Drivers/VL53L4CD_ULD_Driver/VL53L4CD_api.c **** 		{
 257:Drivers/VL53L4CD_ULD_Driver/VL53L4CD_api.c **** 			continue_loop = (uint8_t)0;
 258:Drivers/VL53L4CD_ULD_Driver/VL53L4CD_api.c **** 		}
 259:Drivers/VL53L4CD_ULD_Driver/VL53L4CD_api.c **** 		else if(i < (uint16_t)1000)       /* Wait for answer */
 260:Drivers/VL53L4CD_ULD_Driver/VL53L4CD_api.c **** 		{
 261:Drivers/VL53L4CD_ULD_Driver/VL53L4CD_api.c **** 			i++;
 262:Drivers/VL53L4CD_ULD_Driver/VL53L4CD_api.c **** 		}
 263:Drivers/VL53L4CD_ULD_Driver/VL53L4CD_api.c **** 		else /* Timeout 1000ms reached */
ARM GAS  C:\Users\Dell\AppData\Local\Temp\ccer9IQj.s 			page 8


 264:Drivers/VL53L4CD_ULD_Driver/VL53L4CD_api.c **** 		{
 265:Drivers/VL53L4CD_ULD_Driver/VL53L4CD_api.c **** 			continue_loop = (uint8_t)0;
 266:Drivers/VL53L4CD_ULD_Driver/VL53L4CD_api.c **** 			status |= (uint8_t)VL53L4CD_ERROR_TIMEOUT;
 267:Drivers/VL53L4CD_ULD_Driver/VL53L4CD_api.c **** 		}
 268:Drivers/VL53L4CD_ULD_Driver/VL53L4CD_api.c **** 		WaitMs(dev, 1);
 269:Drivers/VL53L4CD_ULD_Driver/VL53L4CD_api.c **** 	}while(continue_loop == (uint8_t)1);
 270:Drivers/VL53L4CD_ULD_Driver/VL53L4CD_api.c **** 
 271:Drivers/VL53L4CD_ULD_Driver/VL53L4CD_api.c **** 	status |= VL53L4CD_ClearInterrupt(dev);
 272:Drivers/VL53L4CD_ULD_Driver/VL53L4CD_api.c **** 	status |= VL53L4CD_StopRanging(dev);
 273:Drivers/VL53L4CD_ULD_Driver/VL53L4CD_api.c **** 	status |= VL53L4CD_WrByte(dev,
 274:Drivers/VL53L4CD_ULD_Driver/VL53L4CD_api.c **** 			VL53L4CD_VHV_CONFIG__TIMEOUT_MACROP_LOOP_BOUND, 
 275:Drivers/VL53L4CD_ULD_Driver/VL53L4CD_api.c ****                         (uint8_t)0x09);
 276:Drivers/VL53L4CD_ULD_Driver/VL53L4CD_api.c **** 	status |= VL53L4CD_WrByte(dev, 0x0B, (uint8_t)0);
 277:Drivers/VL53L4CD_ULD_Driver/VL53L4CD_api.c **** 	status |= VL53L4CD_WrWord(dev, 0x0024, 0x500);
 278:Drivers/VL53L4CD_ULD_Driver/VL53L4CD_api.c **** 
 279:Drivers/VL53L4CD_ULD_Driver/VL53L4CD_api.c **** 	status |= VL53L4CD_SetRangeTiming(dev, 50, 0);
 280:Drivers/VL53L4CD_ULD_Driver/VL53L4CD_api.c **** 
 281:Drivers/VL53L4CD_ULD_Driver/VL53L4CD_api.c **** 	return status;
 282:Drivers/VL53L4CD_ULD_Driver/VL53L4CD_api.c **** }
 283:Drivers/VL53L4CD_ULD_Driver/VL53L4CD_api.c **** 
 284:Drivers/VL53L4CD_ULD_Driver/VL53L4CD_api.c **** VL53L4CD_Error VL53L4CD_ClearInterrupt(
 285:Drivers/VL53L4CD_ULD_Driver/VL53L4CD_api.c **** 		Dev_t dev)
 286:Drivers/VL53L4CD_ULD_Driver/VL53L4CD_api.c **** {
 144              		.loc 1 286 1 is_stmt 1 view -0
 145              		.cfi_startproc
 146              		@ args = 0, pretend = 0, frame = 0
 147              		@ frame_needed = 0, uses_anonymous_args = 0
 148              		.loc 1 286 1 is_stmt 0 view .LVU31
 149 0000 08B5     		push	{r3, lr}
 150              	.LCFI2:
 151              		.cfi_def_cfa_offset 8
 152              		.cfi_offset 3, -8
 153              		.cfi_offset 14, -4
 287:Drivers/VL53L4CD_ULD_Driver/VL53L4CD_api.c **** 	VL53L4CD_Error status = VL53L4CD_ERROR_NONE;
 154              		.loc 1 287 2 is_stmt 1 view .LVU32
 155              	.LVL12:
 288:Drivers/VL53L4CD_ULD_Driver/VL53L4CD_api.c **** 
 289:Drivers/VL53L4CD_ULD_Driver/VL53L4CD_api.c **** 	status |= VL53L4CD_WrByte(dev, VL53L4CD_SYSTEM__INTERRUPT_CLEAR, 0x01);
 156              		.loc 1 289 2 view .LVU33
 157              		.loc 1 289 12 is_stmt 0 view .LVU34
 158 0002 0122     		movs	r2, #1
 159 0004 8621     		movs	r1, #134
 160 0006 FFF7FEFF 		bl	VL53L4CD_WrByte
 161              	.LVL13:
 290:Drivers/VL53L4CD_ULD_Driver/VL53L4CD_api.c **** 	return status;
 162              		.loc 1 290 2 is_stmt 1 view .LVU35
 291:Drivers/VL53L4CD_ULD_Driver/VL53L4CD_api.c **** }
 163              		.loc 1 291 1 is_stmt 0 view .LVU36
 164 000a 08BD     		pop	{r3, pc}
 165              		.cfi_endproc
 166              	.LFE134:
 168              		.section	.text.VL53L4CD_StartRanging,"ax",%progbits
 169              		.align	1
 170              		.global	VL53L4CD_StartRanging
 171              		.syntax unified
 172              		.thumb
 173              		.thumb_func
ARM GAS  C:\Users\Dell\AppData\Local\Temp\ccer9IQj.s 			page 9


 175              	VL53L4CD_StartRanging:
 176              	.LVL14:
 177              	.LFB135:
 292:Drivers/VL53L4CD_ULD_Driver/VL53L4CD_api.c **** 
 293:Drivers/VL53L4CD_ULD_Driver/VL53L4CD_api.c **** VL53L4CD_Error VL53L4CD_StartRanging(
 294:Drivers/VL53L4CD_ULD_Driver/VL53L4CD_api.c **** 		Dev_t dev)
 295:Drivers/VL53L4CD_ULD_Driver/VL53L4CD_api.c **** {
 178              		.loc 1 295 1 is_stmt 1 view -0
 179              		.cfi_startproc
 180              		@ args = 0, pretend = 0, frame = 8
 181              		@ frame_needed = 0, uses_anonymous_args = 0
 182              		.loc 1 295 1 is_stmt 0 view .LVU38
 183 0000 30B5     		push	{r4, r5, lr}
 184              	.LCFI3:
 185              		.cfi_def_cfa_offset 12
 186              		.cfi_offset 4, -12
 187              		.cfi_offset 5, -8
 188              		.cfi_offset 14, -4
 189 0002 83B0     		sub	sp, sp, #12
 190              	.LCFI4:
 191              		.cfi_def_cfa_offset 24
 192 0004 0546     		mov	r5, r0
 296:Drivers/VL53L4CD_ULD_Driver/VL53L4CD_api.c **** 	VL53L4CD_Error status = VL53L4CD_ERROR_NONE;
 193              		.loc 1 296 2 is_stmt 1 view .LVU39
 194              	.LVL15:
 297:Drivers/VL53L4CD_ULD_Driver/VL53L4CD_api.c **** 	uint32_t tmp;
 195              		.loc 1 297 2 view .LVU40
 298:Drivers/VL53L4CD_ULD_Driver/VL53L4CD_api.c **** 
 299:Drivers/VL53L4CD_ULD_Driver/VL53L4CD_api.c **** 	status |= VL53L4CD_RdDWord(dev, VL53L4CD_INTERMEASUREMENT_MS, &tmp);
 196              		.loc 1 299 2 view .LVU41
 197              		.loc 1 299 12 is_stmt 0 view .LVU42
 198 0006 01AA     		add	r2, sp, #4
 199 0008 6C21     		movs	r1, #108
 200 000a FFF7FEFF 		bl	VL53L4CD_RdDWord
 201              	.LVL16:
 202              		.loc 1 299 12 view .LVU43
 203 000e 0446     		mov	r4, r0
 204              	.LVL17:
 300:Drivers/VL53L4CD_ULD_Driver/VL53L4CD_api.c **** 
 301:Drivers/VL53L4CD_ULD_Driver/VL53L4CD_api.c **** 	/* Sensor runs in continuous mode */
 302:Drivers/VL53L4CD_ULD_Driver/VL53L4CD_api.c **** 	if(tmp == (uint32_t)0)
 205              		.loc 1 302 2 is_stmt 1 view .LVU44
 206              		.loc 1 302 9 is_stmt 0 view .LVU45
 207 0010 019B     		ldr	r3, [sp, #4]
 208              		.loc 1 302 4 view .LVU46
 209 0012 43B9     		cbnz	r3, .L9
 303:Drivers/VL53L4CD_ULD_Driver/VL53L4CD_api.c **** 	{
 304:Drivers/VL53L4CD_ULD_Driver/VL53L4CD_api.c **** 		status |= VL53L4CD_WrByte(dev, VL53L4CD_SYSTEM_START, 0x21);
 210              		.loc 1 304 3 is_stmt 1 view .LVU47
 211              		.loc 1 304 13 is_stmt 0 view .LVU48
 212 0014 2122     		movs	r2, #33
 213 0016 8721     		movs	r1, #135
 214 0018 2846     		mov	r0, r5
 215 001a FFF7FEFF 		bl	VL53L4CD_WrByte
 216              	.LVL18:
 217              		.loc 1 304 10 view .LVU49
 218 001e 2043     		orrs	r0, r0, r4
ARM GAS  C:\Users\Dell\AppData\Local\Temp\ccer9IQj.s 			page 10


 219 0020 C0B2     		uxtb	r0, r0
 220              	.LVL19:
 221              	.L10:
 305:Drivers/VL53L4CD_ULD_Driver/VL53L4CD_api.c **** 	}
 306:Drivers/VL53L4CD_ULD_Driver/VL53L4CD_api.c **** 	/* Sensor runs in autonomous mode */
 307:Drivers/VL53L4CD_ULD_Driver/VL53L4CD_api.c **** 	else
 308:Drivers/VL53L4CD_ULD_Driver/VL53L4CD_api.c **** 	{
 309:Drivers/VL53L4CD_ULD_Driver/VL53L4CD_api.c **** 		status |= VL53L4CD_WrByte(dev, VL53L4CD_SYSTEM_START, 0x40);
 310:Drivers/VL53L4CD_ULD_Driver/VL53L4CD_api.c **** 	}
 311:Drivers/VL53L4CD_ULD_Driver/VL53L4CD_api.c **** 
 312:Drivers/VL53L4CD_ULD_Driver/VL53L4CD_api.c **** 	return status;
 222              		.loc 1 312 2 is_stmt 1 view .LVU50
 313:Drivers/VL53L4CD_ULD_Driver/VL53L4CD_api.c **** }
 223              		.loc 1 313 1 is_stmt 0 view .LVU51
 224 0022 03B0     		add	sp, sp, #12
 225              	.LCFI5:
 226              		.cfi_remember_state
 227              		.cfi_def_cfa_offset 12
 228              		@ sp needed
 229 0024 30BD     		pop	{r4, r5, pc}
 230              	.LVL20:
 231              	.L9:
 232              	.LCFI6:
 233              		.cfi_restore_state
 309:Drivers/VL53L4CD_ULD_Driver/VL53L4CD_api.c **** 	}
 234              		.loc 1 309 3 is_stmt 1 view .LVU52
 309:Drivers/VL53L4CD_ULD_Driver/VL53L4CD_api.c **** 	}
 235              		.loc 1 309 13 is_stmt 0 view .LVU53
 236 0026 4022     		movs	r2, #64
 237 0028 8721     		movs	r1, #135
 238 002a 2846     		mov	r0, r5
 239 002c FFF7FEFF 		bl	VL53L4CD_WrByte
 240              	.LVL21:
 309:Drivers/VL53L4CD_ULD_Driver/VL53L4CD_api.c **** 	}
 241              		.loc 1 309 10 view .LVU54
 242 0030 2043     		orrs	r0, r0, r4
 243 0032 C0B2     		uxtb	r0, r0
 244              	.LVL22:
 309:Drivers/VL53L4CD_ULD_Driver/VL53L4CD_api.c **** 	}
 245              		.loc 1 309 10 view .LVU55
 246 0034 F5E7     		b	.L10
 247              		.cfi_endproc
 248              	.LFE135:
 250              		.section	.text.VL53L4CD_StopRanging,"ax",%progbits
 251              		.align	1
 252              		.global	VL53L4CD_StopRanging
 253              		.syntax unified
 254              		.thumb
 255              		.thumb_func
 257              	VL53L4CD_StopRanging:
 258              	.LVL23:
 259              	.LFB136:
 314:Drivers/VL53L4CD_ULD_Driver/VL53L4CD_api.c **** 
 315:Drivers/VL53L4CD_ULD_Driver/VL53L4CD_api.c **** VL53L4CD_Error VL53L4CD_StopRanging(
 316:Drivers/VL53L4CD_ULD_Driver/VL53L4CD_api.c **** 		Dev_t dev)
 317:Drivers/VL53L4CD_ULD_Driver/VL53L4CD_api.c **** {
 260              		.loc 1 317 1 is_stmt 1 view -0
ARM GAS  C:\Users\Dell\AppData\Local\Temp\ccer9IQj.s 			page 11


 261              		.cfi_startproc
 262              		@ args = 0, pretend = 0, frame = 0
 263              		@ frame_needed = 0, uses_anonymous_args = 0
 264              		.loc 1 317 1 is_stmt 0 view .LVU57
 265 0000 08B5     		push	{r3, lr}
 266              	.LCFI7:
 267              		.cfi_def_cfa_offset 8
 268              		.cfi_offset 3, -8
 269              		.cfi_offset 14, -4
 318:Drivers/VL53L4CD_ULD_Driver/VL53L4CD_api.c **** 	VL53L4CD_Error status = VL53L4CD_ERROR_NONE;
 270              		.loc 1 318 2 is_stmt 1 view .LVU58
 271              	.LVL24:
 319:Drivers/VL53L4CD_ULD_Driver/VL53L4CD_api.c **** 
 320:Drivers/VL53L4CD_ULD_Driver/VL53L4CD_api.c **** 	status |= VL53L4CD_WrByte(dev, VL53L4CD_SYSTEM_START, 0x00);
 272              		.loc 1 320 2 view .LVU59
 273              		.loc 1 320 12 is_stmt 0 view .LVU60
 274 0002 0022     		movs	r2, #0
 275 0004 8721     		movs	r1, #135
 276 0006 FFF7FEFF 		bl	VL53L4CD_WrByte
 277              	.LVL25:
 321:Drivers/VL53L4CD_ULD_Driver/VL53L4CD_api.c **** 	return status;
 278              		.loc 1 321 2 is_stmt 1 view .LVU61
 322:Drivers/VL53L4CD_ULD_Driver/VL53L4CD_api.c **** }
 279              		.loc 1 322 1 is_stmt 0 view .LVU62
 280 000a 08BD     		pop	{r3, pc}
 281              		.cfi_endproc
 282              	.LFE136:
 284              		.section	.text.VL53L4CD_CheckForDataReady,"ax",%progbits
 285              		.align	1
 286              		.global	VL53L4CD_CheckForDataReady
 287              		.syntax unified
 288              		.thumb
 289              		.thumb_func
 291              	VL53L4CD_CheckForDataReady:
 292              	.LVL26:
 293              	.LFB137:
 323:Drivers/VL53L4CD_ULD_Driver/VL53L4CD_api.c **** 
 324:Drivers/VL53L4CD_ULD_Driver/VL53L4CD_api.c **** VL53L4CD_Error VL53L4CD_CheckForDataReady(
 325:Drivers/VL53L4CD_ULD_Driver/VL53L4CD_api.c **** 		Dev_t dev,
 326:Drivers/VL53L4CD_ULD_Driver/VL53L4CD_api.c **** 		uint8_t *p_is_data_ready)
 327:Drivers/VL53L4CD_ULD_Driver/VL53L4CD_api.c **** {
 294              		.loc 1 327 1 is_stmt 1 view -0
 295              		.cfi_startproc
 296              		@ args = 0, pretend = 0, frame = 8
 297              		@ frame_needed = 0, uses_anonymous_args = 0
 298              		.loc 1 327 1 is_stmt 0 view .LVU64
 299 0000 F0B5     		push	{r4, r5, r6, r7, lr}
 300              	.LCFI8:
 301              		.cfi_def_cfa_offset 20
 302              		.cfi_offset 4, -20
 303              		.cfi_offset 5, -16
 304              		.cfi_offset 6, -12
 305              		.cfi_offset 7, -8
 306              		.cfi_offset 14, -4
 307 0002 83B0     		sub	sp, sp, #12
 308              	.LCFI9:
 309              		.cfi_def_cfa_offset 32
ARM GAS  C:\Users\Dell\AppData\Local\Temp\ccer9IQj.s 			page 12


 310 0004 0646     		mov	r6, r0
 311 0006 0D46     		mov	r5, r1
 328:Drivers/VL53L4CD_ULD_Driver/VL53L4CD_api.c **** 	VL53L4CD_Error status = VL53L4CD_ERROR_NONE;
 312              		.loc 1 328 2 is_stmt 1 view .LVU65
 313              	.LVL27:
 329:Drivers/VL53L4CD_ULD_Driver/VL53L4CD_api.c **** 	uint8_t temp;
 314              		.loc 1 329 2 view .LVU66
 330:Drivers/VL53L4CD_ULD_Driver/VL53L4CD_api.c **** 	uint8_t int_pol;
 315              		.loc 1 330 2 view .LVU67
 331:Drivers/VL53L4CD_ULD_Driver/VL53L4CD_api.c **** 
 332:Drivers/VL53L4CD_ULD_Driver/VL53L4CD_api.c **** 	status |= VL53L4CD_RdByte(dev, VL53L4CD_GPIO_HV_MUX__CTRL, &temp);
 316              		.loc 1 332 2 view .LVU68
 317              		.loc 1 332 12 is_stmt 0 view .LVU69
 318 0008 0DF10702 		add	r2, sp, #7
 319 000c 3021     		movs	r1, #48
 320              	.LVL28:
 321              		.loc 1 332 12 view .LVU70
 322 000e FFF7FEFF 		bl	VL53L4CD_RdByte
 323              	.LVL29:
 324              		.loc 1 332 12 view .LVU71
 325 0012 0446     		mov	r4, r0
 326              	.LVL30:
 333:Drivers/VL53L4CD_ULD_Driver/VL53L4CD_api.c **** 	temp = temp & (uint8_t)0x10;
 327              		.loc 1 333 2 is_stmt 1 view .LVU72
 328              		.loc 1 333 14 is_stmt 0 view .LVU73
 329 0014 9DF80730 		ldrb	r3, [sp, #7]	@ zero_extendqisi2
 330 0018 03F01003 		and	r3, r3, #16
 331              		.loc 1 333 7 view .LVU74
 332 001c 8DF80730 		strb	r3, [sp, #7]
 334:Drivers/VL53L4CD_ULD_Driver/VL53L4CD_api.c **** 	temp = temp >> 4;
 333              		.loc 1 334 2 is_stmt 1 view .LVU75
 334              		.loc 1 334 7 is_stmt 0 view .LVU76
 335 0020 1B09     		lsrs	r3, r3, #4
 336 0022 8DF80730 		strb	r3, [sp, #7]
 335:Drivers/VL53L4CD_ULD_Driver/VL53L4CD_api.c **** 
 336:Drivers/VL53L4CD_ULD_Driver/VL53L4CD_api.c **** 	if (temp == (uint8_t)1)
 337              		.loc 1 336 2 is_stmt 1 view .LVU77
 338              		.loc 1 336 5 is_stmt 0 view .LVU78
 339 0026 93B9     		cbnz	r3, .L20
 337:Drivers/VL53L4CD_ULD_Driver/VL53L4CD_api.c **** 	{
 338:Drivers/VL53L4CD_ULD_Driver/VL53L4CD_api.c **** 		int_pol = (uint8_t)0;
 339:Drivers/VL53L4CD_ULD_Driver/VL53L4CD_api.c **** 	}
 340:Drivers/VL53L4CD_ULD_Driver/VL53L4CD_api.c **** 	else
 341:Drivers/VL53L4CD_ULD_Driver/VL53L4CD_api.c **** 	{
 342:Drivers/VL53L4CD_ULD_Driver/VL53L4CD_api.c **** 		int_pol = (uint8_t)1;
 340              		.loc 1 342 11 view .LVU79
 341 0028 0127     		movs	r7, #1
 342              	.L15:
 343              	.LVL31:
 343:Drivers/VL53L4CD_ULD_Driver/VL53L4CD_api.c **** 	}
 344:Drivers/VL53L4CD_ULD_Driver/VL53L4CD_api.c **** 
 345:Drivers/VL53L4CD_ULD_Driver/VL53L4CD_api.c **** 	status |= VL53L4CD_RdByte(dev, VL53L4CD_GPIO__TIO_HV_STATUS, &temp);
 344              		.loc 1 345 2 is_stmt 1 view .LVU80
 345              		.loc 1 345 12 is_stmt 0 view .LVU81
 346 002a 0DF10702 		add	r2, sp, #7
 347 002e 3121     		movs	r1, #49
 348 0030 3046     		mov	r0, r6
ARM GAS  C:\Users\Dell\AppData\Local\Temp\ccer9IQj.s 			page 13


 349 0032 FFF7FEFF 		bl	VL53L4CD_RdByte
 350              	.LVL32:
 351              		.loc 1 345 9 view .LVU82
 352 0036 2043     		orrs	r0, r0, r4
 353 0038 C0B2     		uxtb	r0, r0
 354              	.LVL33:
 346:Drivers/VL53L4CD_ULD_Driver/VL53L4CD_api.c **** 
 347:Drivers/VL53L4CD_ULD_Driver/VL53L4CD_api.c **** 	if ((temp & (uint8_t)1) == int_pol)
 355              		.loc 1 347 2 is_stmt 1 view .LVU83
 356              		.loc 1 347 12 is_stmt 0 view .LVU84
 357 003a 9DF80730 		ldrb	r3, [sp, #7]	@ zero_extendqisi2
 358              		.loc 1 347 5 view .LVU85
 359 003e 03F00103 		and	r3, r3, #1
 360 0042 9F42     		cmp	r7, r3
 361 0044 05D0     		beq	.L21
 348:Drivers/VL53L4CD_ULD_Driver/VL53L4CD_api.c **** 	{
 349:Drivers/VL53L4CD_ULD_Driver/VL53L4CD_api.c **** 		*p_is_data_ready = (uint8_t)1;
 350:Drivers/VL53L4CD_ULD_Driver/VL53L4CD_api.c **** 	}
 351:Drivers/VL53L4CD_ULD_Driver/VL53L4CD_api.c **** 	else
 352:Drivers/VL53L4CD_ULD_Driver/VL53L4CD_api.c **** 	{
 353:Drivers/VL53L4CD_ULD_Driver/VL53L4CD_api.c **** 		*p_is_data_ready = (uint8_t)0;
 362              		.loc 1 353 3 is_stmt 1 view .LVU86
 363              		.loc 1 353 20 is_stmt 0 view .LVU87
 364 0046 0023     		movs	r3, #0
 365 0048 2B70     		strb	r3, [r5]
 366              	.L17:
 354:Drivers/VL53L4CD_ULD_Driver/VL53L4CD_api.c **** 	}
 355:Drivers/VL53L4CD_ULD_Driver/VL53L4CD_api.c **** 
 356:Drivers/VL53L4CD_ULD_Driver/VL53L4CD_api.c **** 	return status;
 367              		.loc 1 356 2 is_stmt 1 view .LVU88
 357:Drivers/VL53L4CD_ULD_Driver/VL53L4CD_api.c **** }
 368              		.loc 1 357 1 is_stmt 0 view .LVU89
 369 004a 03B0     		add	sp, sp, #12
 370              	.LCFI10:
 371              		.cfi_remember_state
 372              		.cfi_def_cfa_offset 20
 373              		@ sp needed
 374 004c F0BD     		pop	{r4, r5, r6, r7, pc}
 375              	.LVL34:
 376              	.L20:
 377              	.LCFI11:
 378              		.cfi_restore_state
 338:Drivers/VL53L4CD_ULD_Driver/VL53L4CD_api.c **** 	}
 379              		.loc 1 338 11 view .LVU90
 380 004e 0027     		movs	r7, #0
 381 0050 EBE7     		b	.L15
 382              	.LVL35:
 383              	.L21:
 349:Drivers/VL53L4CD_ULD_Driver/VL53L4CD_api.c **** 	}
 384              		.loc 1 349 3 is_stmt 1 view .LVU91
 349:Drivers/VL53L4CD_ULD_Driver/VL53L4CD_api.c **** 	}
 385              		.loc 1 349 20 is_stmt 0 view .LVU92
 386 0052 0123     		movs	r3, #1
 387 0054 2B70     		strb	r3, [r5]
 388 0056 F8E7     		b	.L17
 389              		.cfi_endproc
 390              	.LFE137:
ARM GAS  C:\Users\Dell\AppData\Local\Temp\ccer9IQj.s 			page 14


 392              		.section	.text.VL53L4CD_SetRangeTiming,"ax",%progbits
 393              		.align	1
 394              		.global	VL53L4CD_SetRangeTiming
 395              		.syntax unified
 396              		.thumb
 397              		.thumb_func
 399              	VL53L4CD_SetRangeTiming:
 400              	.LVL36:
 401              	.LFB138:
 358:Drivers/VL53L4CD_ULD_Driver/VL53L4CD_api.c **** 
 359:Drivers/VL53L4CD_ULD_Driver/VL53L4CD_api.c **** VL53L4CD_Error VL53L4CD_SetRangeTiming(
 360:Drivers/VL53L4CD_ULD_Driver/VL53L4CD_api.c **** 		Dev_t dev,
 361:Drivers/VL53L4CD_ULD_Driver/VL53L4CD_api.c **** 		uint32_t timing_budget_ms,
 362:Drivers/VL53L4CD_ULD_Driver/VL53L4CD_api.c **** 		uint32_t inter_measurement_ms)
 363:Drivers/VL53L4CD_ULD_Driver/VL53L4CD_api.c **** {
 402              		.loc 1 363 1 is_stmt 1 view -0
 403              		.cfi_startproc
 404              		@ args = 0, pretend = 0, frame = 8
 405              		@ frame_needed = 0, uses_anonymous_args = 0
 406              		.loc 1 363 1 is_stmt 0 view .LVU94
 407 0000 2DE9F043 		push	{r4, r5, r6, r7, r8, r9, lr}
 408              	.LCFI12:
 409              		.cfi_def_cfa_offset 28
 410              		.cfi_offset 4, -28
 411              		.cfi_offset 5, -24
 412              		.cfi_offset 6, -20
 413              		.cfi_offset 7, -16
 414              		.cfi_offset 8, -12
 415              		.cfi_offset 9, -8
 416              		.cfi_offset 14, -4
 417 0004 83B0     		sub	sp, sp, #12
 418              	.LCFI13:
 419              		.cfi_def_cfa_offset 40
 420 0006 0446     		mov	r4, r0
 421 0008 0E46     		mov	r6, r1
 422 000a 9146     		mov	r9, r2
 364:Drivers/VL53L4CD_ULD_Driver/VL53L4CD_api.c **** 	VL53L4CD_Error status = VL53L4CD_ERROR_NONE;
 423              		.loc 1 364 2 is_stmt 1 view .LVU95
 424              	.LVL37:
 365:Drivers/VL53L4CD_ULD_Driver/VL53L4CD_api.c **** 	uint16_t clock_pll, osc_frequency, ms_byte;
 425              		.loc 1 365 2 view .LVU96
 366:Drivers/VL53L4CD_ULD_Driver/VL53L4CD_api.c **** 	uint32_t macro_period_us = 0, timing_budget_us = 0, ls_byte, tmp;
 426              		.loc 1 366 2 view .LVU97
 367:Drivers/VL53L4CD_ULD_Driver/VL53L4CD_api.c **** 	float_t inter_measurement_factor = (float_t)1.055;
 427              		.loc 1 367 2 view .LVU98
 368:Drivers/VL53L4CD_ULD_Driver/VL53L4CD_api.c **** 
 369:Drivers/VL53L4CD_ULD_Driver/VL53L4CD_api.c **** 	status |= VL53L4CD_RdWord(dev, 0x0006, &osc_frequency);
 428              		.loc 1 369 2 view .LVU99
 429              		.loc 1 369 12 is_stmt 0 view .LVU100
 430 000c 01AA     		add	r2, sp, #4
 431              	.LVL38:
 432              		.loc 1 369 12 view .LVU101
 433 000e 0621     		movs	r1, #6
 434              	.LVL39:
 435              		.loc 1 369 12 view .LVU102
 436 0010 FFF7FEFF 		bl	VL53L4CD_RdWord
 437              	.LVL40:
ARM GAS  C:\Users\Dell\AppData\Local\Temp\ccer9IQj.s 			page 15


 438              		.loc 1 369 12 view .LVU103
 439 0014 0546     		mov	r5, r0
 440              	.LVL41:
 370:Drivers/VL53L4CD_ULD_Driver/VL53L4CD_api.c **** 	if(osc_frequency != (uint16_t)0)
 441              		.loc 1 370 2 is_stmt 1 view .LVU104
 442              		.loc 1 370 19 is_stmt 0 view .LVU105
 443 0016 BDF80430 		ldrh	r3, [sp, #4]
 444              		.loc 1 370 4 view .LVU106
 445 001a 03B3     		cbz	r3, .L23
 371:Drivers/VL53L4CD_ULD_Driver/VL53L4CD_api.c **** 	{
 372:Drivers/VL53L4CD_ULD_Driver/VL53L4CD_api.c **** 		timing_budget_us = timing_budget_ms*(uint32_t)1000;
 446              		.loc 1 372 3 is_stmt 1 view .LVU107
 447              		.loc 1 372 20 is_stmt 0 view .LVU108
 448 001c 4FF47A72 		mov	r2, #1000
 449 0020 02FB06F8 		mul	r8, r2, r6
 450              	.LVL42:
 373:Drivers/VL53L4CD_ULD_Driver/VL53L4CD_api.c **** 		macro_period_us = (uint32_t)((uint32_t)2304 *
 451              		.loc 1 373 3 is_stmt 1 view .LVU109
 374:Drivers/VL53L4CD_ULD_Driver/VL53L4CD_api.c **** 		((uint32_t)0x40000000 / (uint32_t)osc_frequency)) >> 6;
 452              		.loc 1 374 25 is_stmt 0 view .LVU110
 453 0024 4FF08047 		mov	r7, #1073741824
 454 0028 B7FBF3F7 		udiv	r7, r7, r3
 373:Drivers/VL53L4CD_ULD_Driver/VL53L4CD_api.c **** 		macro_period_us = (uint32_t)((uint32_t)2304 *
 455              		.loc 1 373 21 view .LVU111
 456 002c 07EBC707 		add	r7, r7, r7, lsl #3
 457 0030 3F02     		lsls	r7, r7, #8
 373:Drivers/VL53L4CD_ULD_Driver/VL53L4CD_api.c **** 		macro_period_us = (uint32_t)((uint32_t)2304 *
 458              		.loc 1 373 19 view .LVU112
 459 0032 BF09     		lsrs	r7, r7, #6
 460              	.LVL43:
 461              	.L24:
 375:Drivers/VL53L4CD_ULD_Driver/VL53L4CD_api.c **** 	}
 376:Drivers/VL53L4CD_ULD_Driver/VL53L4CD_api.c **** 	else
 377:Drivers/VL53L4CD_ULD_Driver/VL53L4CD_api.c **** 	{
 378:Drivers/VL53L4CD_ULD_Driver/VL53L4CD_api.c **** 		status |= (uint8_t)VL53L4CD_ERROR_INVALID_ARGUMENT;
 379:Drivers/VL53L4CD_ULD_Driver/VL53L4CD_api.c **** 	}
 380:Drivers/VL53L4CD_ULD_Driver/VL53L4CD_api.c **** 
 381:Drivers/VL53L4CD_ULD_Driver/VL53L4CD_api.c **** 	/* Timing budget check validity */
 382:Drivers/VL53L4CD_ULD_Driver/VL53L4CD_api.c **** 	if ((timing_budget_ms < (uint32_t)10) 
 462              		.loc 1 382 2 is_stmt 1 view .LVU113
 383:Drivers/VL53L4CD_ULD_Driver/VL53L4CD_api.c **** 			|| (timing_budget_ms > (uint32_t)200) || (status != (uint8_t)0))
 463              		.loc 1 383 4 is_stmt 0 view .LVU114
 464 0034 A6F10A03 		sub	r3, r6, #10
 382:Drivers/VL53L4CD_ULD_Driver/VL53L4CD_api.c **** 			|| (timing_budget_ms > (uint32_t)200) || (status != (uint8_t)0))
 465              		.loc 1 382 5 view .LVU115
 466 0038 BE2B     		cmp	r3, #190
 467 003a 00D8     		bhi	.L25
 468              		.loc 1 383 42 view .LVU116
 469 003c B5B1     		cbz	r5, .L26
 470              	.L25:
 384:Drivers/VL53L4CD_ULD_Driver/VL53L4CD_api.c **** 	{
 385:Drivers/VL53L4CD_ULD_Driver/VL53L4CD_api.c **** 		status |= VL53L4CD_ERROR_INVALID_ARGUMENT;
 471              		.loc 1 385 3 is_stmt 1 view .LVU117
 472              		.loc 1 385 10 is_stmt 0 view .LVU118
 473 003e 65F00105 		orn	r5, r5, #1
 474              	.LVL44:
 475              		.loc 1 385 10 view .LVU119
ARM GAS  C:\Users\Dell\AppData\Local\Temp\ccer9IQj.s 			page 16


 476 0042 EDB2     		uxtb	r5, r5
 477              	.LVL45:
 478              	.L27:
 386:Drivers/VL53L4CD_ULD_Driver/VL53L4CD_api.c **** 	}
 387:Drivers/VL53L4CD_ULD_Driver/VL53L4CD_api.c **** 	/* Sensor runs in continuous mode */
 388:Drivers/VL53L4CD_ULD_Driver/VL53L4CD_api.c **** 	else if(inter_measurement_ms == (uint32_t)0)
 389:Drivers/VL53L4CD_ULD_Driver/VL53L4CD_api.c **** 	{
 390:Drivers/VL53L4CD_ULD_Driver/VL53L4CD_api.c **** 		status |= VL53L4CD_WrDWord(dev,VL53L4CD_INTERMEASUREMENT_MS, 0);
 391:Drivers/VL53L4CD_ULD_Driver/VL53L4CD_api.c **** 		timing_budget_us -= (uint32_t)2500;
 392:Drivers/VL53L4CD_ULD_Driver/VL53L4CD_api.c **** 	}
 393:Drivers/VL53L4CD_ULD_Driver/VL53L4CD_api.c **** 	/* Sensor runs in autonomous low power mode */
 394:Drivers/VL53L4CD_ULD_Driver/VL53L4CD_api.c **** 	else if(inter_measurement_ms > timing_budget_ms)
 395:Drivers/VL53L4CD_ULD_Driver/VL53L4CD_api.c **** 	{
 396:Drivers/VL53L4CD_ULD_Driver/VL53L4CD_api.c **** 		status |= VL53L4CD_RdWord(dev,
 397:Drivers/VL53L4CD_ULD_Driver/VL53L4CD_api.c **** 				VL53L4CD_RESULT__OSC_CALIBRATE_VAL, &clock_pll);
 398:Drivers/VL53L4CD_ULD_Driver/VL53L4CD_api.c **** 		clock_pll = clock_pll & (uint16_t)0x3FF;
 399:Drivers/VL53L4CD_ULD_Driver/VL53L4CD_api.c **** 				inter_measurement_factor = inter_measurement_factor
 400:Drivers/VL53L4CD_ULD_Driver/VL53L4CD_api.c **** 				  * (float_t)inter_measurement_ms
 401:Drivers/VL53L4CD_ULD_Driver/VL53L4CD_api.c **** 				  * (float_t)clock_pll;
 402:Drivers/VL53L4CD_ULD_Driver/VL53L4CD_api.c **** 		status |= VL53L4CD_WrDWord(dev, VL53L4CD_INTERMEASUREMENT_MS,
 403:Drivers/VL53L4CD_ULD_Driver/VL53L4CD_api.c **** 				(uint32_t)inter_measurement_factor);
 404:Drivers/VL53L4CD_ULD_Driver/VL53L4CD_api.c **** 
 405:Drivers/VL53L4CD_ULD_Driver/VL53L4CD_api.c **** 		timing_budget_us -= (uint32_t)4300;
 406:Drivers/VL53L4CD_ULD_Driver/VL53L4CD_api.c **** 		timing_budget_us /= (uint32_t)2;
 407:Drivers/VL53L4CD_ULD_Driver/VL53L4CD_api.c **** 
 408:Drivers/VL53L4CD_ULD_Driver/VL53L4CD_api.c **** 	}
 409:Drivers/VL53L4CD_ULD_Driver/VL53L4CD_api.c **** 	/* Invalid case */
 410:Drivers/VL53L4CD_ULD_Driver/VL53L4CD_api.c **** 	else
 411:Drivers/VL53L4CD_ULD_Driver/VL53L4CD_api.c **** 	{
 412:Drivers/VL53L4CD_ULD_Driver/VL53L4CD_api.c **** 		status |= (uint8_t)VL53L4CD_ERROR_INVALID_ARGUMENT;
 413:Drivers/VL53L4CD_ULD_Driver/VL53L4CD_api.c **** 	}
 414:Drivers/VL53L4CD_ULD_Driver/VL53L4CD_api.c **** 
 415:Drivers/VL53L4CD_ULD_Driver/VL53L4CD_api.c **** 	if(status != (uint8_t)VL53L4CD_ERROR_INVALID_ARGUMENT)
 479              		.loc 1 415 2 is_stmt 1 view .LVU120
 480              		.loc 1 415 4 is_stmt 0 view .LVU121
 481 0044 FE2D     		cmp	r5, #254
 482 0046 7ED0     		beq	.L30
 416:Drivers/VL53L4CD_ULD_Driver/VL53L4CD_api.c **** 	{
 417:Drivers/VL53L4CD_ULD_Driver/VL53L4CD_api.c **** 				ms_byte = 0;
 483              		.loc 1 417 5 is_stmt 1 view .LVU122
 484              	.LVL46:
 418:Drivers/VL53L4CD_ULD_Driver/VL53L4CD_api.c **** 				timing_budget_us = timing_budget_us << 12;
 485              		.loc 1 418 5 view .LVU123
 486              		.loc 1 418 22 is_stmt 0 view .LVU124
 487 0048 4FEA0836 		lsl	r6, r8, #12
 488              	.LVL47:
 419:Drivers/VL53L4CD_ULD_Driver/VL53L4CD_api.c **** 				tmp = macro_period_us*(uint32_t)16;
 489              		.loc 1 419 5 is_stmt 1 view .LVU125
 420:Drivers/VL53L4CD_ULD_Driver/VL53L4CD_api.c **** 				ls_byte = ((timing_budget_us + ((tmp >> 6)>>1)) /(tmp>> 6))
 490              		.loc 1 420 5 view .LVU126
 491              		.loc 1 420 47 is_stmt 0 view .LVU127
 492 004c FA08     		lsrs	r2, r7, #3
 493              		.loc 1 420 34 view .LVU128
 494 004e 02EB0832 		add	r2, r2, r8, lsl #12
 495              		.loc 1 420 58 view .LVU129
 496 0052 BB08     		lsrs	r3, r7, #2
 497              		.loc 1 420 53 view .LVU130
ARM GAS  C:\Users\Dell\AppData\Local\Temp\ccer9IQj.s 			page 17


 498 0054 B2FBF3F2 		udiv	r2, r2, r3
 499              		.loc 1 420 13 view .LVU131
 500 0058 013A     		subs	r2, r2, #1
 501              	.LVL48:
 421:Drivers/VL53L4CD_ULD_Driver/VL53L4CD_api.c **** 				  - (uint32_t)1;
 422:Drivers/VL53L4CD_ULD_Driver/VL53L4CD_api.c **** 
 423:Drivers/VL53L4CD_ULD_Driver/VL53L4CD_api.c **** 				while ((ls_byte & 0xFFFFFF00U) > 0U) {
 502              		.loc 1 423 5 is_stmt 1 view .LVU132
 417:Drivers/VL53L4CD_ULD_Driver/VL53L4CD_api.c **** 				timing_budget_us = timing_budget_us << 12;
 503              		.loc 1 417 13 is_stmt 0 view .LVU133
 504 005a 0023     		movs	r3, #0
 505              		.loc 1 423 11 view .LVU134
 506 005c 48E0     		b	.L31
 507              	.LVL49:
 508              	.L23:
 378:Drivers/VL53L4CD_ULD_Driver/VL53L4CD_api.c **** 	}
 509              		.loc 1 378 3 is_stmt 1 view .LVU135
 378:Drivers/VL53L4CD_ULD_Driver/VL53L4CD_api.c **** 	}
 510              		.loc 1 378 10 is_stmt 0 view .LVU136
 511 005e 60F00105 		orn	r5, r0, #1
 512 0062 EDB2     		uxtb	r5, r5
 513              	.LVL50:
 366:Drivers/VL53L4CD_ULD_Driver/VL53L4CD_api.c **** 	float_t inter_measurement_factor = (float_t)1.055;
 514              		.loc 1 366 32 view .LVU137
 515 0064 4FF00008 		mov	r8, #0
 366:Drivers/VL53L4CD_ULD_Driver/VL53L4CD_api.c **** 	float_t inter_measurement_factor = (float_t)1.055;
 516              		.loc 1 366 11 view .LVU138
 517 0068 4746     		mov	r7, r8
 518 006a E3E7     		b	.L24
 519              	.LVL51:
 520              	.L26:
 388:Drivers/VL53L4CD_ULD_Driver/VL53L4CD_api.c **** 	{
 521              		.loc 1 388 7 is_stmt 1 view .LVU139
 388:Drivers/VL53L4CD_ULD_Driver/VL53L4CD_api.c **** 	{
 522              		.loc 1 388 9 is_stmt 0 view .LVU140
 523 006c B9F1000F 		cmp	r9, #0
 524 0070 05D0     		beq	.L36
 394:Drivers/VL53L4CD_ULD_Driver/VL53L4CD_api.c **** 	{
 525              		.loc 1 394 7 is_stmt 1 view .LVU141
 394:Drivers/VL53L4CD_ULD_Driver/VL53L4CD_api.c **** 	{
 526              		.loc 1 394 9 is_stmt 0 view .LVU142
 527 0072 4E45     		cmp	r6, r9
 528 0074 0DD3     		bcc	.L37
 412:Drivers/VL53L4CD_ULD_Driver/VL53L4CD_api.c **** 	}
 529              		.loc 1 412 3 is_stmt 1 view .LVU143
 412:Drivers/VL53L4CD_ULD_Driver/VL53L4CD_api.c **** 	}
 530              		.loc 1 412 10 is_stmt 0 view .LVU144
 531 0076 65F00105 		orn	r5, r5, #1
 532              	.LVL52:
 412:Drivers/VL53L4CD_ULD_Driver/VL53L4CD_api.c **** 	}
 533              		.loc 1 412 10 view .LVU145
 534 007a EDB2     		uxtb	r5, r5
 535              	.LVL53:
 412:Drivers/VL53L4CD_ULD_Driver/VL53L4CD_api.c **** 	}
 536              		.loc 1 412 10 view .LVU146
 537 007c E2E7     		b	.L27
 538              	.L36:
ARM GAS  C:\Users\Dell\AppData\Local\Temp\ccer9IQj.s 			page 18


 390:Drivers/VL53L4CD_ULD_Driver/VL53L4CD_api.c **** 		timing_budget_us -= (uint32_t)2500;
 539              		.loc 1 390 3 is_stmt 1 view .LVU147
 390:Drivers/VL53L4CD_ULD_Driver/VL53L4CD_api.c **** 		timing_budget_us -= (uint32_t)2500;
 540              		.loc 1 390 13 is_stmt 0 view .LVU148
 541 007e 0022     		movs	r2, #0
 542 0080 6C21     		movs	r1, #108
 543 0082 2046     		mov	r0, r4
 544 0084 FFF7FEFF 		bl	VL53L4CD_WrDWord
 545              	.LVL54:
 390:Drivers/VL53L4CD_ULD_Driver/VL53L4CD_api.c **** 		timing_budget_us -= (uint32_t)2500;
 546              		.loc 1 390 10 view .LVU149
 547 0088 0543     		orrs	r5, r5, r0
 548              	.LVL55:
 390:Drivers/VL53L4CD_ULD_Driver/VL53L4CD_api.c **** 		timing_budget_us -= (uint32_t)2500;
 549              		.loc 1 390 10 view .LVU150
 550 008a EDB2     		uxtb	r5, r5
 551              	.LVL56:
 391:Drivers/VL53L4CD_ULD_Driver/VL53L4CD_api.c **** 	}
 552              		.loc 1 391 3 is_stmt 1 view .LVU151
 391:Drivers/VL53L4CD_ULD_Driver/VL53L4CD_api.c **** 	}
 553              		.loc 1 391 20 is_stmt 0 view .LVU152
 554 008c A8F6C418 		subw	r8, r8, #2500
 555              	.LVL57:
 391:Drivers/VL53L4CD_ULD_Driver/VL53L4CD_api.c **** 	}
 556              		.loc 1 391 20 view .LVU153
 557 0090 D8E7     		b	.L27
 558              	.L37:
 396:Drivers/VL53L4CD_ULD_Driver/VL53L4CD_api.c **** 				VL53L4CD_RESULT__OSC_CALIBRATE_VAL, &clock_pll);
 559              		.loc 1 396 3 is_stmt 1 view .LVU154
 396:Drivers/VL53L4CD_ULD_Driver/VL53L4CD_api.c **** 				VL53L4CD_RESULT__OSC_CALIBRATE_VAL, &clock_pll);
 560              		.loc 1 396 13 is_stmt 0 view .LVU155
 561 0092 0DF10602 		add	r2, sp, #6
 562 0096 DE21     		movs	r1, #222
 563 0098 2046     		mov	r0, r4
 564 009a FFF7FEFF 		bl	VL53L4CD_RdWord
 565              	.LVL58:
 396:Drivers/VL53L4CD_ULD_Driver/VL53L4CD_api.c **** 				VL53L4CD_RESULT__OSC_CALIBRATE_VAL, &clock_pll);
 566              		.loc 1 396 10 view .LVU156
 567 009e 0543     		orrs	r5, r5, r0
 568              	.LVL59:
 396:Drivers/VL53L4CD_ULD_Driver/VL53L4CD_api.c **** 				VL53L4CD_RESULT__OSC_CALIBRATE_VAL, &clock_pll);
 569              		.loc 1 396 10 view .LVU157
 570 00a0 EDB2     		uxtb	r5, r5
 571              	.LVL60:
 398:Drivers/VL53L4CD_ULD_Driver/VL53L4CD_api.c **** 				inter_measurement_factor = inter_measurement_factor
 572              		.loc 1 398 3 is_stmt 1 view .LVU158
 398:Drivers/VL53L4CD_ULD_Driver/VL53L4CD_api.c **** 				inter_measurement_factor = inter_measurement_factor
 573              		.loc 1 398 25 is_stmt 0 view .LVU159
 574 00a2 BDF80630 		ldrh	r3, [sp, #6]
 575 00a6 C3F30903 		ubfx	r3, r3, #0, #10
 398:Drivers/VL53L4CD_ULD_Driver/VL53L4CD_api.c **** 				inter_measurement_factor = inter_measurement_factor
 576              		.loc 1 398 13 view .LVU160
 577 00aa ADF80630 		strh	r3, [sp, #6]	@ movhi
 399:Drivers/VL53L4CD_ULD_Driver/VL53L4CD_api.c **** 				  * (float_t)inter_measurement_ms
 578              		.loc 1 399 5 is_stmt 1 view .LVU161
 400:Drivers/VL53L4CD_ULD_Driver/VL53L4CD_api.c **** 				  * (float_t)clock_pll;
 579              		.loc 1 400 9 is_stmt 0 view .LVU162
ARM GAS  C:\Users\Dell\AppData\Local\Temp\ccer9IQj.s 			page 19


 580 00ae 07EE909A 		vmov	s15, r9	@ int
 581 00b2 B8EE677A 		vcvt.f32.u32	s14, s15
 400:Drivers/VL53L4CD_ULD_Driver/VL53L4CD_api.c **** 				  * (float_t)clock_pll;
 582              		.loc 1 400 7 view .LVU163
 583 00b6 DFED267A 		vldr.32	s15, .L38
 584 00ba 27EE277A 		vmul.f32	s14, s14, s15
 401:Drivers/VL53L4CD_ULD_Driver/VL53L4CD_api.c **** 		status |= VL53L4CD_WrDWord(dev, VL53L4CD_INTERMEASUREMENT_MS,
 585              		.loc 1 401 9 view .LVU164
 586 00be 07EE903A 		vmov	s15, r3	@ int
 587 00c2 F8EE677A 		vcvt.f32.u32	s15, s15
 399:Drivers/VL53L4CD_ULD_Driver/VL53L4CD_api.c **** 				  * (float_t)inter_measurement_ms
 588              		.loc 1 399 30 view .LVU165
 589 00c6 67EE277A 		vmul.f32	s15, s14, s15
 590              	.LVL61:
 402:Drivers/VL53L4CD_ULD_Driver/VL53L4CD_api.c **** 				(uint32_t)inter_measurement_factor);
 591              		.loc 1 402 3 is_stmt 1 view .LVU166
 402:Drivers/VL53L4CD_ULD_Driver/VL53L4CD_api.c **** 				(uint32_t)inter_measurement_factor);
 592              		.loc 1 402 13 is_stmt 0 view .LVU167
 593 00ca FCEEE77A 		vcvt.u32.f32	s15, s15
 594              	.LVL62:
 402:Drivers/VL53L4CD_ULD_Driver/VL53L4CD_api.c **** 				(uint32_t)inter_measurement_factor);
 595              		.loc 1 402 13 view .LVU168
 596 00ce 17EE902A 		vmov	r2, s15	@ int
 597 00d2 6C21     		movs	r1, #108
 598 00d4 2046     		mov	r0, r4
 599 00d6 FFF7FEFF 		bl	VL53L4CD_WrDWord
 600              	.LVL63:
 402:Drivers/VL53L4CD_ULD_Driver/VL53L4CD_api.c **** 				(uint32_t)inter_measurement_factor);
 601              		.loc 1 402 10 view .LVU169
 602 00da 0543     		orrs	r5, r5, r0
 603              	.LVL64:
 402:Drivers/VL53L4CD_ULD_Driver/VL53L4CD_api.c **** 				(uint32_t)inter_measurement_factor);
 604              		.loc 1 402 10 view .LVU170
 605 00dc EDB2     		uxtb	r5, r5
 606              	.LVL65:
 405:Drivers/VL53L4CD_ULD_Driver/VL53L4CD_api.c **** 		timing_budget_us /= (uint32_t)2;
 607              		.loc 1 405 3 is_stmt 1 view .LVU171
 405:Drivers/VL53L4CD_ULD_Driver/VL53L4CD_api.c **** 		timing_budget_us /= (uint32_t)2;
 608              		.loc 1 405 20 is_stmt 0 view .LVU172
 609 00de A8F58652 		sub	r2, r8, #4288
 610 00e2 0C3A     		subs	r2, r2, #12
 611              	.LVL66:
 406:Drivers/VL53L4CD_ULD_Driver/VL53L4CD_api.c **** 
 612              		.loc 1 406 3 is_stmt 1 view .LVU173
 406:Drivers/VL53L4CD_ULD_Driver/VL53L4CD_api.c **** 
 613              		.loc 1 406 20 is_stmt 0 view .LVU174
 614 00e4 4FEA5208 		lsr	r8, r2, #1
 615              	.LVL67:
 406:Drivers/VL53L4CD_ULD_Driver/VL53L4CD_api.c **** 
 616              		.loc 1 406 20 view .LVU175
 617 00e8 ACE7     		b	.L27
 618              	.LVL68:
 619              	.L32:
 424:Drivers/VL53L4CD_ULD_Driver/VL53L4CD_api.c **** 						 ls_byte = ls_byte >> 1;
 620              		.loc 1 424 8 is_stmt 1 view .LVU176
 621              		.loc 1 424 16 is_stmt 0 view .LVU177
 622 00ea 5208     		lsrs	r2, r2, #1
ARM GAS  C:\Users\Dell\AppData\Local\Temp\ccer9IQj.s 			page 20


 623              	.LVL69:
 425:Drivers/VL53L4CD_ULD_Driver/VL53L4CD_api.c **** 						 ms_byte++;
 624              		.loc 1 425 8 is_stmt 1 view .LVU178
 625              		.loc 1 425 15 is_stmt 0 view .LVU179
 626 00ec 0133     		adds	r3, r3, #1
 627              	.LVL70:
 628              		.loc 1 425 15 view .LVU180
 629 00ee 9BB2     		uxth	r3, r3
 630              	.LVL71:
 631              	.L31:
 423:Drivers/VL53L4CD_ULD_Driver/VL53L4CD_api.c **** 						 ls_byte = ls_byte >> 1;
 632              		.loc 1 423 11 is_stmt 1 view .LVU181
 633 00f0 32F0FF01 		bics	r1, r2, #255
 634 00f4 F9D1     		bne	.L32
 426:Drivers/VL53L4CD_ULD_Driver/VL53L4CD_api.c **** 				}
 427:Drivers/VL53L4CD_ULD_Driver/VL53L4CD_api.c **** 				ms_byte = (uint16_t)(ms_byte << 8)
 635              		.loc 1 427 5 view .LVU182
 636              		.loc 1 427 15 is_stmt 0 view .LVU183
 637 00f6 1B02     		lsls	r3, r3, #8
 638              	.LVL72:
 639              		.loc 1 427 15 view .LVU184
 640 00f8 9BB2     		uxth	r3, r3
 641              		.loc 1 427 13 view .LVU185
 642 00fa 53FA82F2 		uxtab	r2, r3, r2
 643              	.LVL73:
 428:Drivers/VL53L4CD_ULD_Driver/VL53L4CD_api.c **** 			+ (uint16_t) (ls_byte & (uint32_t)0xFF);
 429:Drivers/VL53L4CD_ULD_Driver/VL53L4CD_api.c **** 				status |= VL53L4CD_WrWord(dev, VL53L4CD_RANGE_CONFIG_A,ms_byte);
 644              		.loc 1 429 5 is_stmt 1 view .LVU186
 645              		.loc 1 429 15 is_stmt 0 view .LVU187
 646 00fe 92B2     		uxth	r2, r2
 647              		.loc 1 429 15 view .LVU188
 648 0100 5E21     		movs	r1, #94
 649 0102 2046     		mov	r0, r4
 650 0104 FFF7FEFF 		bl	VL53L4CD_WrWord
 651              	.LVL74:
 652              		.loc 1 429 12 view .LVU189
 653 0108 0543     		orrs	r5, r5, r0
 654              	.LVL75:
 655              		.loc 1 429 12 view .LVU190
 656 010a EDB2     		uxtb	r5, r5
 657              	.LVL76:
 430:Drivers/VL53L4CD_ULD_Driver/VL53L4CD_api.c **** 
 431:Drivers/VL53L4CD_ULD_Driver/VL53L4CD_api.c **** 				ms_byte = 0;
 658              		.loc 1 431 5 is_stmt 1 view .LVU191
 432:Drivers/VL53L4CD_ULD_Driver/VL53L4CD_api.c **** 				tmp = macro_period_us*(uint32_t)12;
 659              		.loc 1 432 5 view .LVU192
 660              		.loc 1 432 9 is_stmt 0 view .LVU193
 661 010c 07EB4707 		add	r7, r7, r7, lsl #1
 662              	.LVL77:
 433:Drivers/VL53L4CD_ULD_Driver/VL53L4CD_api.c **** 				ls_byte = ((timing_budget_us + ((tmp >> 6)>>1)) /(tmp>> 6))
 663              		.loc 1 433 5 is_stmt 1 view .LVU194
 664              		.loc 1 433 47 is_stmt 0 view .LVU195
 665 0110 C7F35812 		ubfx	r2, r7, #5, #25
 666              		.loc 1 433 34 view .LVU196
 667 0114 3244     		add	r2, r2, r6
 668              		.loc 1 433 58 view .LVU197
 669 0116 C7F31917 		ubfx	r7, r7, #4, #26
ARM GAS  C:\Users\Dell\AppData\Local\Temp\ccer9IQj.s 			page 21


 670              	.LVL78:
 671              		.loc 1 433 53 view .LVU198
 672 011a B2FBF7F2 		udiv	r2, r2, r7
 673              		.loc 1 433 13 view .LVU199
 674 011e 013A     		subs	r2, r2, #1
 675              	.LVL79:
 434:Drivers/VL53L4CD_ULD_Driver/VL53L4CD_api.c **** 				  - (uint32_t)1;
 435:Drivers/VL53L4CD_ULD_Driver/VL53L4CD_api.c **** 
 436:Drivers/VL53L4CD_ULD_Driver/VL53L4CD_api.c **** 				while ((ls_byte & 0xFFFFFF00U) > 0U) {
 676              		.loc 1 436 5 is_stmt 1 view .LVU200
 431:Drivers/VL53L4CD_ULD_Driver/VL53L4CD_api.c **** 				tmp = macro_period_us*(uint32_t)12;
 677              		.loc 1 431 13 is_stmt 0 view .LVU201
 678 0120 0023     		movs	r3, #0
 679              		.loc 1 436 11 view .LVU202
 680 0122 02E0     		b	.L33
 681              	.LVL80:
 682              	.L34:
 437:Drivers/VL53L4CD_ULD_Driver/VL53L4CD_api.c **** 						 ls_byte = ls_byte >> 1;
 683              		.loc 1 437 8 is_stmt 1 view .LVU203
 684              		.loc 1 437 16 is_stmt 0 view .LVU204
 685 0124 5208     		lsrs	r2, r2, #1
 686              	.LVL81:
 438:Drivers/VL53L4CD_ULD_Driver/VL53L4CD_api.c **** 						 ms_byte++;
 687              		.loc 1 438 8 is_stmt 1 view .LVU205
 688              		.loc 1 438 15 is_stmt 0 view .LVU206
 689 0126 0133     		adds	r3, r3, #1
 690              	.LVL82:
 691              		.loc 1 438 15 view .LVU207
 692 0128 9BB2     		uxth	r3, r3
 693              	.LVL83:
 694              	.L33:
 436:Drivers/VL53L4CD_ULD_Driver/VL53L4CD_api.c **** 						 ls_byte = ls_byte >> 1;
 695              		.loc 1 436 11 is_stmt 1 view .LVU208
 696 012a 32F0FF01 		bics	r1, r2, #255
 697 012e F9D1     		bne	.L34
 439:Drivers/VL53L4CD_ULD_Driver/VL53L4CD_api.c **** 				}
 440:Drivers/VL53L4CD_ULD_Driver/VL53L4CD_api.c **** 				ms_byte = (uint16_t)(ms_byte << 8)
 698              		.loc 1 440 5 view .LVU209
 699              		.loc 1 440 15 is_stmt 0 view .LVU210
 700 0130 1B02     		lsls	r3, r3, #8
 701              	.LVL84:
 702              		.loc 1 440 15 view .LVU211
 703 0132 9BB2     		uxth	r3, r3
 704              		.loc 1 440 13 view .LVU212
 705 0134 53FA82F2 		uxtab	r2, r3, r2
 706              	.LVL85:
 441:Drivers/VL53L4CD_ULD_Driver/VL53L4CD_api.c **** 			+ (uint16_t) (ls_byte & (uint32_t)0xFF);
 442:Drivers/VL53L4CD_ULD_Driver/VL53L4CD_api.c **** 				status |= VL53L4CD_WrWord(dev, VL53L4CD_RANGE_CONFIG_B,ms_byte);
 707              		.loc 1 442 5 is_stmt 1 view .LVU213
 708              		.loc 1 442 15 is_stmt 0 view .LVU214
 709 0138 92B2     		uxth	r2, r2
 710              		.loc 1 442 15 view .LVU215
 711 013a 6121     		movs	r1, #97
 712 013c 2046     		mov	r0, r4
 713 013e FFF7FEFF 		bl	VL53L4CD_WrWord
 714              	.LVL86:
 715              		.loc 1 442 12 view .LVU216
ARM GAS  C:\Users\Dell\AppData\Local\Temp\ccer9IQj.s 			page 22


 716 0142 0543     		orrs	r5, r5, r0
 717              	.LVL87:
 718              		.loc 1 442 12 view .LVU217
 719 0144 EDB2     		uxtb	r5, r5
 720              	.LVL88:
 721              	.L30:
 443:Drivers/VL53L4CD_ULD_Driver/VL53L4CD_api.c **** 	}
 444:Drivers/VL53L4CD_ULD_Driver/VL53L4CD_api.c **** 
 445:Drivers/VL53L4CD_ULD_Driver/VL53L4CD_api.c **** 	return status;
 722              		.loc 1 445 2 is_stmt 1 view .LVU218
 446:Drivers/VL53L4CD_ULD_Driver/VL53L4CD_api.c **** }
 723              		.loc 1 446 1 is_stmt 0 view .LVU219
 724 0146 2846     		mov	r0, r5
 725 0148 03B0     		add	sp, sp, #12
 726              	.LCFI14:
 727              		.cfi_def_cfa_offset 28
 728              		@ sp needed
 729 014a BDE8F083 		pop	{r4, r5, r6, r7, r8, r9, pc}
 730              	.LVL89:
 731              	.L39:
 732              		.loc 1 446 1 view .LVU220
 733 014e 00BF     		.align	2
 734              	.L38:
 735 0150 3D0A873F 		.word	1065814589
 736              		.cfi_endproc
 737              	.LFE138:
 739              		.section	.text.VL53L4CD_SensorInit,"ax",%progbits
 740              		.align	1
 741              		.global	VL53L4CD_SensorInit
 742              		.syntax unified
 743              		.thumb
 744              		.thumb_func
 746              	VL53L4CD_SensorInit:
 747              	.LVL90:
 748              	.LFB133:
 215:Drivers/VL53L4CD_ULD_Driver/VL53L4CD_api.c **** 	VL53L4CD_Error status = VL53L4CD_ERROR_NONE;
 749              		.loc 1 215 1 is_stmt 1 view -0
 750              		.cfi_startproc
 751              		@ args = 0, pretend = 0, frame = 8
 752              		@ frame_needed = 0, uses_anonymous_args = 0
 215:Drivers/VL53L4CD_ULD_Driver/VL53L4CD_api.c **** 	VL53L4CD_Error status = VL53L4CD_ERROR_NONE;
 753              		.loc 1 215 1 is_stmt 0 view .LVU222
 754 0000 2DE9F041 		push	{r4, r5, r6, r7, r8, lr}
 755              	.LCFI15:
 756              		.cfi_def_cfa_offset 24
 757              		.cfi_offset 4, -24
 758              		.cfi_offset 5, -20
 759              		.cfi_offset 6, -16
 760              		.cfi_offset 7, -12
 761              		.cfi_offset 8, -8
 762              		.cfi_offset 14, -4
 763 0004 82B0     		sub	sp, sp, #8
 764              	.LCFI16:
 765              		.cfi_def_cfa_offset 32
 766 0006 0646     		mov	r6, r0
 216:Drivers/VL53L4CD_ULD_Driver/VL53L4CD_api.c **** 	uint8_t Addr, tmp;
 767              		.loc 1 216 2 is_stmt 1 view .LVU223
ARM GAS  C:\Users\Dell\AppData\Local\Temp\ccer9IQj.s 			page 23


 768              	.LVL91:
 217:Drivers/VL53L4CD_ULD_Driver/VL53L4CD_api.c **** 	uint8_t continue_loop = 1;
 769              		.loc 1 217 2 view .LVU224
 218:Drivers/VL53L4CD_ULD_Driver/VL53L4CD_api.c **** 	uint16_t i = 0;
 770              		.loc 1 218 2 view .LVU225
 219:Drivers/VL53L4CD_ULD_Driver/VL53L4CD_api.c **** 
 771              		.loc 1 219 2 view .LVU226
 219:Drivers/VL53L4CD_ULD_Driver/VL53L4CD_api.c **** 
 772              		.loc 1 219 11 is_stmt 0 view .LVU227
 773 0008 0024     		movs	r4, #0
 218:Drivers/VL53L4CD_ULD_Driver/VL53L4CD_api.c **** 	uint16_t i = 0;
 774              		.loc 1 218 10 view .LVU228
 775 000a 0127     		movs	r7, #1
 216:Drivers/VL53L4CD_ULD_Driver/VL53L4CD_api.c **** 	uint8_t Addr, tmp;
 776              		.loc 1 216 17 view .LVU229
 777 000c 2546     		mov	r5, r4
 778 000e 05E0     		b	.L42
 779              	.LVL92:
 780              	.L47:
 227:Drivers/VL53L4CD_ULD_Driver/VL53L4CD_api.c **** 		}
 781              		.loc 1 227 18 view .LVU230
 782 0010 0027     		movs	r7, #0
 783              	.LVL93:
 784              	.L41:
 238:Drivers/VL53L4CD_ULD_Driver/VL53L4CD_api.c **** 	}while(continue_loop == (uint8_t)1);
 785              		.loc 1 238 3 is_stmt 1 view .LVU231
 786 0012 0121     		movs	r1, #1
 787 0014 3046     		mov	r0, r6
 788 0016 FFF7FEFF 		bl	WaitMs
 789              	.LVL94:
 239:Drivers/VL53L4CD_ULD_Driver/VL53L4CD_api.c **** 
 790              		.loc 1 239 8 view .LVU232
 239:Drivers/VL53L4CD_ULD_Driver/VL53L4CD_api.c **** 
 791              		.loc 1 239 2 is_stmt 0 view .LVU233
 792 001a A7B1     		cbz	r7, .L52
 793              	.LVL95:
 794              	.L42:
 221:Drivers/VL53L4CD_ULD_Driver/VL53L4CD_api.c **** 		status |= VL53L4CD_RdByte(dev,
 795              		.loc 1 221 2 is_stmt 1 view .LVU234
 222:Drivers/VL53L4CD_ULD_Driver/VL53L4CD_api.c **** 				VL53L4CD_FIRMWARE__SYSTEM_STATUS, &tmp);
 796              		.loc 1 222 3 view .LVU235
 222:Drivers/VL53L4CD_ULD_Driver/VL53L4CD_api.c **** 				VL53L4CD_FIRMWARE__SYSTEM_STATUS, &tmp);
 797              		.loc 1 222 13 is_stmt 0 view .LVU236
 798 001c 0DF10702 		add	r2, sp, #7
 799 0020 E521     		movs	r1, #229
 800 0022 3046     		mov	r0, r6
 801 0024 FFF7FEFF 		bl	VL53L4CD_RdByte
 802              	.LVL96:
 222:Drivers/VL53L4CD_ULD_Driver/VL53L4CD_api.c **** 				VL53L4CD_FIRMWARE__SYSTEM_STATUS, &tmp);
 803              		.loc 1 222 10 view .LVU237
 804 0028 2843     		orrs	r0, r0, r5
 805 002a C5B2     		uxtb	r5, r0
 806              	.LVL97:
 225:Drivers/VL53L4CD_ULD_Driver/VL53L4CD_api.c **** 		{
 807              		.loc 1 225 3 is_stmt 1 view .LVU238
 225:Drivers/VL53L4CD_ULD_Driver/VL53L4CD_api.c **** 		{
 808              		.loc 1 225 10 is_stmt 0 view .LVU239
ARM GAS  C:\Users\Dell\AppData\Local\Temp\ccer9IQj.s 			page 24


 809 002c 9DF80730 		ldrb	r3, [sp, #7]	@ zero_extendqisi2
 225:Drivers/VL53L4CD_ULD_Driver/VL53L4CD_api.c **** 		{
 810              		.loc 1 225 5 view .LVU240
 811 0030 032B     		cmp	r3, #3
 812 0032 EDD0     		beq	.L47
 229:Drivers/VL53L4CD_ULD_Driver/VL53L4CD_api.c **** 		{
 813              		.loc 1 229 8 is_stmt 1 view .LVU241
 229:Drivers/VL53L4CD_ULD_Driver/VL53L4CD_api.c **** 		{
 814              		.loc 1 229 10 is_stmt 0 view .LVU242
 815 0034 B4F57A7F 		cmp	r4, #1000
 816 0038 02D2     		bcs	.L48
 231:Drivers/VL53L4CD_ULD_Driver/VL53L4CD_api.c **** 		}
 817              		.loc 1 231 4 is_stmt 1 view .LVU243
 231:Drivers/VL53L4CD_ULD_Driver/VL53L4CD_api.c **** 		}
 818              		.loc 1 231 5 is_stmt 0 view .LVU244
 819 003a 0134     		adds	r4, r4, #1
 820              	.LVL98:
 231:Drivers/VL53L4CD_ULD_Driver/VL53L4CD_api.c **** 		}
 821              		.loc 1 231 5 view .LVU245
 822 003c A4B2     		uxth	r4, r4
 823              	.LVL99:
 231:Drivers/VL53L4CD_ULD_Driver/VL53L4CD_api.c **** 		}
 824              		.loc 1 231 5 view .LVU246
 825 003e E8E7     		b	.L41
 826              	.L48:
 235:Drivers/VL53L4CD_ULD_Driver/VL53L4CD_api.c **** 			status |= (uint8_t)VL53L4CD_ERROR_TIMEOUT;
 827              		.loc 1 235 18 view .LVU247
 828 0040 0027     		movs	r7, #0
 829              	.LVL100:
 236:Drivers/VL53L4CD_ULD_Driver/VL53L4CD_api.c **** 		}
 830              		.loc 1 236 11 view .LVU248
 831 0042 FF25     		movs	r5, #255
 832              	.LVL101:
 236:Drivers/VL53L4CD_ULD_Driver/VL53L4CD_api.c **** 		}
 833              		.loc 1 236 11 view .LVU249
 834 0044 E5E7     		b	.L41
 835              	.LVL102:
 836              	.L52:
 242:Drivers/VL53L4CD_ULD_Driver/VL53L4CD_api.c **** 	{
 837              		.loc 1 242 12 view .LVU250
 838 0046 2D24     		movs	r4, #45
 839              	.LVL103:
 242:Drivers/VL53L4CD_ULD_Driver/VL53L4CD_api.c **** 	{
 840              		.loc 1 242 12 view .LVU251
 841 0048 0BE0     		b	.L43
 842              	.LVL104:
 843              	.L44:
 244:Drivers/VL53L4CD_ULD_Driver/VL53L4CD_api.c **** 				VL53L4CD_DEFAULT_CONFIGURATION[
 844              		.loc 1 244 3 is_stmt 1 discriminator 3 view .LVU252
 246:Drivers/VL53L4CD_ULD_Driver/VL53L4CD_api.c **** 	}
 845              		.loc 1 246 40 is_stmt 0 discriminator 3 view .LVU253
 846 004a A4F12D03 		sub	r3, r4, #45
 244:Drivers/VL53L4CD_ULD_Driver/VL53L4CD_api.c **** 				VL53L4CD_DEFAULT_CONFIGURATION[
 847              		.loc 1 244 13 discriminator 3 view .LVU254
 848 004e 2E4A     		ldr	r2, .L54
 849 0050 D25C     		ldrb	r2, [r2, r3]	@ zero_extendqisi2
 850 0052 2146     		mov	r1, r4
ARM GAS  C:\Users\Dell\AppData\Local\Temp\ccer9IQj.s 			page 25


 851 0054 3046     		mov	r0, r6
 852 0056 FFF7FEFF 		bl	VL53L4CD_WrByte
 853              	.LVL105:
 244:Drivers/VL53L4CD_ULD_Driver/VL53L4CD_api.c **** 				VL53L4CD_DEFAULT_CONFIGURATION[
 854              		.loc 1 244 10 discriminator 3 view .LVU255
 855 005a 2843     		orrs	r0, r0, r5
 856 005c C5B2     		uxtb	r5, r0
 857              	.LVL106:
 242:Drivers/VL53L4CD_ULD_Driver/VL53L4CD_api.c **** 	{
 858              		.loc 1 242 52 is_stmt 1 discriminator 3 view .LVU256
 242:Drivers/VL53L4CD_ULD_Driver/VL53L4CD_api.c **** 	{
 859              		.loc 1 242 56 is_stmt 0 discriminator 3 view .LVU257
 860 005e 0134     		adds	r4, r4, #1
 861              	.LVL107:
 242:Drivers/VL53L4CD_ULD_Driver/VL53L4CD_api.c **** 	{
 862              		.loc 1 242 56 discriminator 3 view .LVU258
 863 0060 E4B2     		uxtb	r4, r4
 864              	.LVL108:
 865              	.L43:
 242:Drivers/VL53L4CD_ULD_Driver/VL53L4CD_api.c **** 	{
 866              		.loc 1 242 29 is_stmt 1 discriminator 1 view .LVU259
 242:Drivers/VL53L4CD_ULD_Driver/VL53L4CD_api.c **** 	{
 867              		.loc 1 242 2 is_stmt 0 discriminator 1 view .LVU260
 868 0062 872C     		cmp	r4, #135
 869 0064 F1D9     		bls	.L44
 250:Drivers/VL53L4CD_ULD_Driver/VL53L4CD_api.c **** 	i  = (uint8_t)0;
 870              		.loc 1 250 2 is_stmt 1 view .LVU261
 250:Drivers/VL53L4CD_ULD_Driver/VL53L4CD_api.c **** 	i  = (uint8_t)0;
 871              		.loc 1 250 12 is_stmt 0 view .LVU262
 872 0066 4022     		movs	r2, #64
 873 0068 8721     		movs	r1, #135
 874 006a 3046     		mov	r0, r6
 875 006c FFF7FEFF 		bl	VL53L4CD_WrByte
 876              	.LVL109:
 250:Drivers/VL53L4CD_ULD_Driver/VL53L4CD_api.c **** 	i  = (uint8_t)0;
 877              		.loc 1 250 9 view .LVU263
 878 0070 2843     		orrs	r0, r0, r5
 879 0072 C4B2     		uxtb	r4, r0
 880              	.LVL110:
 251:Drivers/VL53L4CD_ULD_Driver/VL53L4CD_api.c **** 	continue_loop = (uint8_t)1;
 881              		.loc 1 251 2 is_stmt 1 view .LVU264
 252:Drivers/VL53L4CD_ULD_Driver/VL53L4CD_api.c **** 	do{
 882              		.loc 1 252 2 view .LVU265
 251:Drivers/VL53L4CD_ULD_Driver/VL53L4CD_api.c **** 	continue_loop = (uint8_t)1;
 883              		.loc 1 251 5 is_stmt 0 view .LVU266
 884 0074 0025     		movs	r5, #0
 252:Drivers/VL53L4CD_ULD_Driver/VL53L4CD_api.c **** 	do{
 885              		.loc 1 252 16 view .LVU267
 886 0076 4FF00108 		mov	r8, #1
 887 007a 07E0     		b	.L46
 888              	.LVL111:
 889              	.L49:
 257:Drivers/VL53L4CD_ULD_Driver/VL53L4CD_api.c **** 		}
 890              		.loc 1 257 18 view .LVU268
 891 007c B846     		mov	r8, r7
 892              	.LVL112:
 893              	.L45:
ARM GAS  C:\Users\Dell\AppData\Local\Temp\ccer9IQj.s 			page 26


 268:Drivers/VL53L4CD_ULD_Driver/VL53L4CD_api.c **** 	}while(continue_loop == (uint8_t)1);
 894              		.loc 1 268 3 is_stmt 1 view .LVU269
 895 007e 0121     		movs	r1, #1
 896 0080 3046     		mov	r0, r6
 897 0082 FFF7FEFF 		bl	WaitMs
 898              	.LVL113:
 269:Drivers/VL53L4CD_ULD_Driver/VL53L4CD_api.c **** 
 899              		.loc 1 269 8 view .LVU270
 269:Drivers/VL53L4CD_ULD_Driver/VL53L4CD_api.c **** 
 900              		.loc 1 269 2 is_stmt 0 view .LVU271
 901 0086 B8F1010F 		cmp	r8, #1
 902 008a 13D1     		bne	.L53
 903              	.LVL114:
 904              	.L46:
 253:Drivers/VL53L4CD_ULD_Driver/VL53L4CD_api.c **** 		status |= VL53L4CD_CheckForDataReady(dev, &tmp);
 905              		.loc 1 253 2 is_stmt 1 view .LVU272
 254:Drivers/VL53L4CD_ULD_Driver/VL53L4CD_api.c **** 		if(tmp == (uint8_t)1) /* Data ready */
 906              		.loc 1 254 3 view .LVU273
 254:Drivers/VL53L4CD_ULD_Driver/VL53L4CD_api.c **** 		if(tmp == (uint8_t)1) /* Data ready */
 907              		.loc 1 254 13 is_stmt 0 view .LVU274
 908 008c 0DF10701 		add	r1, sp, #7
 909 0090 3046     		mov	r0, r6
 910 0092 FFF7FEFF 		bl	VL53L4CD_CheckForDataReady
 911              	.LVL115:
 254:Drivers/VL53L4CD_ULD_Driver/VL53L4CD_api.c **** 		if(tmp == (uint8_t)1) /* Data ready */
 912              		.loc 1 254 10 view .LVU275
 913 0096 0443     		orrs	r4, r4, r0
 914              	.LVL116:
 254:Drivers/VL53L4CD_ULD_Driver/VL53L4CD_api.c **** 		if(tmp == (uint8_t)1) /* Data ready */
 915              		.loc 1 254 10 view .LVU276
 916 0098 E4B2     		uxtb	r4, r4
 917              	.LVL117:
 255:Drivers/VL53L4CD_ULD_Driver/VL53L4CD_api.c **** 		{
 918              		.loc 1 255 3 is_stmt 1 view .LVU277
 255:Drivers/VL53L4CD_ULD_Driver/VL53L4CD_api.c **** 		{
 919              		.loc 1 255 10 is_stmt 0 view .LVU278
 920 009a 9DF80730 		ldrb	r3, [sp, #7]	@ zero_extendqisi2
 255:Drivers/VL53L4CD_ULD_Driver/VL53L4CD_api.c **** 		{
 921              		.loc 1 255 5 view .LVU279
 922 009e 012B     		cmp	r3, #1
 923 00a0 ECD0     		beq	.L49
 259:Drivers/VL53L4CD_ULD_Driver/VL53L4CD_api.c **** 		{
 924              		.loc 1 259 8 is_stmt 1 view .LVU280
 259:Drivers/VL53L4CD_ULD_Driver/VL53L4CD_api.c **** 		{
 925              		.loc 1 259 10 is_stmt 0 view .LVU281
 926 00a2 B5F57A7F 		cmp	r5, #1000
 927 00a6 02D2     		bcs	.L50
 261:Drivers/VL53L4CD_ULD_Driver/VL53L4CD_api.c **** 		}
 928              		.loc 1 261 4 is_stmt 1 view .LVU282
 261:Drivers/VL53L4CD_ULD_Driver/VL53L4CD_api.c **** 		}
 929              		.loc 1 261 5 is_stmt 0 view .LVU283
 930 00a8 0135     		adds	r5, r5, #1
 931              	.LVL118:
 261:Drivers/VL53L4CD_ULD_Driver/VL53L4CD_api.c **** 		}
 932              		.loc 1 261 5 view .LVU284
 933 00aa ADB2     		uxth	r5, r5
 934              	.LVL119:
ARM GAS  C:\Users\Dell\AppData\Local\Temp\ccer9IQj.s 			page 27


 261:Drivers/VL53L4CD_ULD_Driver/VL53L4CD_api.c **** 		}
 935              		.loc 1 261 5 view .LVU285
 936 00ac E7E7     		b	.L45
 937              	.L50:
 265:Drivers/VL53L4CD_ULD_Driver/VL53L4CD_api.c **** 			status |= (uint8_t)VL53L4CD_ERROR_TIMEOUT;
 938              		.loc 1 265 18 view .LVU286
 939 00ae B846     		mov	r8, r7
 940              	.LVL120:
 266:Drivers/VL53L4CD_ULD_Driver/VL53L4CD_api.c **** 		}
 941              		.loc 1 266 11 view .LVU287
 942 00b0 FF24     		movs	r4, #255
 943              	.LVL121:
 266:Drivers/VL53L4CD_ULD_Driver/VL53L4CD_api.c **** 		}
 944              		.loc 1 266 11 view .LVU288
 945 00b2 E4E7     		b	.L45
 946              	.LVL122:
 947              	.L53:
 271:Drivers/VL53L4CD_ULD_Driver/VL53L4CD_api.c **** 	status |= VL53L4CD_StopRanging(dev);
 948              		.loc 1 271 2 is_stmt 1 view .LVU289
 271:Drivers/VL53L4CD_ULD_Driver/VL53L4CD_api.c **** 	status |= VL53L4CD_StopRanging(dev);
 949              		.loc 1 271 12 is_stmt 0 view .LVU290
 950 00b4 3046     		mov	r0, r6
 951 00b6 FFF7FEFF 		bl	VL53L4CD_ClearInterrupt
 952              	.LVL123:
 271:Drivers/VL53L4CD_ULD_Driver/VL53L4CD_api.c **** 	status |= VL53L4CD_StopRanging(dev);
 953              		.loc 1 271 9 view .LVU291
 954 00ba 0443     		orrs	r4, r4, r0
 955              	.LVL124:
 271:Drivers/VL53L4CD_ULD_Driver/VL53L4CD_api.c **** 	status |= VL53L4CD_StopRanging(dev);
 956              		.loc 1 271 9 view .LVU292
 957 00bc E4B2     		uxtb	r4, r4
 958              	.LVL125:
 272:Drivers/VL53L4CD_ULD_Driver/VL53L4CD_api.c **** 	status |= VL53L4CD_WrByte(dev,
 959              		.loc 1 272 2 is_stmt 1 view .LVU293
 272:Drivers/VL53L4CD_ULD_Driver/VL53L4CD_api.c **** 	status |= VL53L4CD_WrByte(dev,
 960              		.loc 1 272 12 is_stmt 0 view .LVU294
 961 00be 3046     		mov	r0, r6
 962 00c0 FFF7FEFF 		bl	VL53L4CD_StopRanging
 963              	.LVL126:
 272:Drivers/VL53L4CD_ULD_Driver/VL53L4CD_api.c **** 	status |= VL53L4CD_WrByte(dev,
 964              		.loc 1 272 9 view .LVU295
 965 00c4 0443     		orrs	r4, r4, r0
 966              	.LVL127:
 272:Drivers/VL53L4CD_ULD_Driver/VL53L4CD_api.c **** 	status |= VL53L4CD_WrByte(dev,
 967              		.loc 1 272 9 view .LVU296
 968 00c6 E4B2     		uxtb	r4, r4
 969              	.LVL128:
 273:Drivers/VL53L4CD_ULD_Driver/VL53L4CD_api.c **** 			VL53L4CD_VHV_CONFIG__TIMEOUT_MACROP_LOOP_BOUND, 
 970              		.loc 1 273 2 is_stmt 1 view .LVU297
 273:Drivers/VL53L4CD_ULD_Driver/VL53L4CD_api.c **** 			VL53L4CD_VHV_CONFIG__TIMEOUT_MACROP_LOOP_BOUND, 
 971              		.loc 1 273 12 is_stmt 0 view .LVU298
 972 00c8 0922     		movs	r2, #9
 973 00ca 0821     		movs	r1, #8
 974 00cc 3046     		mov	r0, r6
 975 00ce FFF7FEFF 		bl	VL53L4CD_WrByte
 976              	.LVL129:
 273:Drivers/VL53L4CD_ULD_Driver/VL53L4CD_api.c **** 			VL53L4CD_VHV_CONFIG__TIMEOUT_MACROP_LOOP_BOUND, 
ARM GAS  C:\Users\Dell\AppData\Local\Temp\ccer9IQj.s 			page 28


 977              		.loc 1 273 9 view .LVU299
 978 00d2 0443     		orrs	r4, r4, r0
 979              	.LVL130:
 273:Drivers/VL53L4CD_ULD_Driver/VL53L4CD_api.c **** 			VL53L4CD_VHV_CONFIG__TIMEOUT_MACROP_LOOP_BOUND, 
 980              		.loc 1 273 9 view .LVU300
 981 00d4 E4B2     		uxtb	r4, r4
 982              	.LVL131:
 276:Drivers/VL53L4CD_ULD_Driver/VL53L4CD_api.c **** 	status |= VL53L4CD_WrWord(dev, 0x0024, 0x500);
 983              		.loc 1 276 2 is_stmt 1 view .LVU301
 276:Drivers/VL53L4CD_ULD_Driver/VL53L4CD_api.c **** 	status |= VL53L4CD_WrWord(dev, 0x0024, 0x500);
 984              		.loc 1 276 12 is_stmt 0 view .LVU302
 985 00d6 0022     		movs	r2, #0
 986 00d8 0B21     		movs	r1, #11
 987 00da 3046     		mov	r0, r6
 988 00dc FFF7FEFF 		bl	VL53L4CD_WrByte
 989              	.LVL132:
 276:Drivers/VL53L4CD_ULD_Driver/VL53L4CD_api.c **** 	status |= VL53L4CD_WrWord(dev, 0x0024, 0x500);
 990              		.loc 1 276 9 view .LVU303
 991 00e0 0443     		orrs	r4, r4, r0
 992              	.LVL133:
 276:Drivers/VL53L4CD_ULD_Driver/VL53L4CD_api.c **** 	status |= VL53L4CD_WrWord(dev, 0x0024, 0x500);
 993              		.loc 1 276 9 view .LVU304
 994 00e2 E4B2     		uxtb	r4, r4
 995              	.LVL134:
 277:Drivers/VL53L4CD_ULD_Driver/VL53L4CD_api.c **** 
 996              		.loc 1 277 2 is_stmt 1 view .LVU305
 277:Drivers/VL53L4CD_ULD_Driver/VL53L4CD_api.c **** 
 997              		.loc 1 277 12 is_stmt 0 view .LVU306
 998 00e4 4FF4A062 		mov	r2, #1280
 999 00e8 2421     		movs	r1, #36
 1000 00ea 3046     		mov	r0, r6
 1001 00ec FFF7FEFF 		bl	VL53L4CD_WrWord
 1002              	.LVL135:
 277:Drivers/VL53L4CD_ULD_Driver/VL53L4CD_api.c **** 
 1003              		.loc 1 277 9 view .LVU307
 1004 00f0 0443     		orrs	r4, r4, r0
 1005              	.LVL136:
 277:Drivers/VL53L4CD_ULD_Driver/VL53L4CD_api.c **** 
 1006              		.loc 1 277 9 view .LVU308
 1007 00f2 E4B2     		uxtb	r4, r4
 1008              	.LVL137:
 279:Drivers/VL53L4CD_ULD_Driver/VL53L4CD_api.c **** 
 1009              		.loc 1 279 2 is_stmt 1 view .LVU309
 279:Drivers/VL53L4CD_ULD_Driver/VL53L4CD_api.c **** 
 1010              		.loc 1 279 12 is_stmt 0 view .LVU310
 1011 00f4 0022     		movs	r2, #0
 1012 00f6 3221     		movs	r1, #50
 1013 00f8 3046     		mov	r0, r6
 1014 00fa FFF7FEFF 		bl	VL53L4CD_SetRangeTiming
 1015              	.LVL138:
 279:Drivers/VL53L4CD_ULD_Driver/VL53L4CD_api.c **** 
 1016              		.loc 1 279 9 view .LVU311
 1017 00fe 2043     		orrs	r0, r0, r4
 1018              	.LVL139:
 281:Drivers/VL53L4CD_ULD_Driver/VL53L4CD_api.c **** }
 1019              		.loc 1 281 2 is_stmt 1 view .LVU312
 282:Drivers/VL53L4CD_ULD_Driver/VL53L4CD_api.c **** 
ARM GAS  C:\Users\Dell\AppData\Local\Temp\ccer9IQj.s 			page 29


 1020              		.loc 1 282 1 is_stmt 0 view .LVU313
 1021 0100 C0B2     		uxtb	r0, r0
 282:Drivers/VL53L4CD_ULD_Driver/VL53L4CD_api.c **** 
 1022              		.loc 1 282 1 view .LVU314
 1023 0102 02B0     		add	sp, sp, #8
 1024              	.LCFI17:
 1025              		.cfi_def_cfa_offset 24
 1026              		@ sp needed
 1027 0104 BDE8F081 		pop	{r4, r5, r6, r7, r8, pc}
 1028              	.LVL140:
 1029              	.L55:
 282:Drivers/VL53L4CD_ULD_Driver/VL53L4CD_api.c **** 
 1030              		.loc 1 282 1 view .LVU315
 1031              		.align	2
 1032              	.L54:
 1033 0108 00000000 		.word	.LANCHOR0
 1034              		.cfi_endproc
 1035              	.LFE133:
 1037              		.section	.text.VL53L4CD_GetRangeTiming,"ax",%progbits
 1038              		.align	1
 1039              		.global	VL53L4CD_GetRangeTiming
 1040              		.syntax unified
 1041              		.thumb
 1042              		.thumb_func
 1044              	VL53L4CD_GetRangeTiming:
 1045              	.LVL141:
 1046              	.LFB139:
 447:Drivers/VL53L4CD_ULD_Driver/VL53L4CD_api.c **** 
 448:Drivers/VL53L4CD_ULD_Driver/VL53L4CD_api.c **** VL53L4CD_Error VL53L4CD_GetRangeTiming(
 449:Drivers/VL53L4CD_ULD_Driver/VL53L4CD_api.c **** 		Dev_t dev,
 450:Drivers/VL53L4CD_ULD_Driver/VL53L4CD_api.c **** 		uint32_t *p_timing_budget_ms,
 451:Drivers/VL53L4CD_ULD_Driver/VL53L4CD_api.c **** 		uint32_t *p_inter_measurement_ms)
 452:Drivers/VL53L4CD_ULD_Driver/VL53L4CD_api.c **** {
 1047              		.loc 1 452 1 is_stmt 1 view -0
 1048              		.cfi_startproc
 1049              		@ args = 0, pretend = 0, frame = 16
 1050              		@ frame_needed = 0, uses_anonymous_args = 0
 1051              		.loc 1 452 1 is_stmt 0 view .LVU317
 1052 0000 F0B5     		push	{r4, r5, r6, r7, lr}
 1053              	.LCFI18:
 1054              		.cfi_def_cfa_offset 20
 1055              		.cfi_offset 4, -20
 1056              		.cfi_offset 5, -16
 1057              		.cfi_offset 6, -12
 1058              		.cfi_offset 7, -8
 1059              		.cfi_offset 14, -4
 1060 0002 85B0     		sub	sp, sp, #20
 1061              	.LCFI19:
 1062              		.cfi_def_cfa_offset 40
 1063 0004 0646     		mov	r6, r0
 1064 0006 0C46     		mov	r4, r1
 1065 0008 1746     		mov	r7, r2
 453:Drivers/VL53L4CD_ULD_Driver/VL53L4CD_api.c **** 	VL53L4CD_Error status = VL53L4CD_ERROR_NONE;
 1066              		.loc 1 453 2 is_stmt 1 view .LVU318
 1067              	.LVL142:
 454:Drivers/VL53L4CD_ULD_Driver/VL53L4CD_api.c **** 	uint16_t osc_frequency = 1, range_config_macrop_high, clock_pll = 1;
 1068              		.loc 1 454 2 view .LVU319
ARM GAS  C:\Users\Dell\AppData\Local\Temp\ccer9IQj.s 			page 30


 1069              		.loc 1 454 11 is_stmt 0 view .LVU320
 1070 000a 0123     		movs	r3, #1
 1071 000c ADF80E30 		strh	r3, [sp, #14]	@ movhi
 1072              		.loc 1 454 56 view .LVU321
 1073 0010 ADF80A30 		strh	r3, [sp, #10]	@ movhi
 455:Drivers/VL53L4CD_ULD_Driver/VL53L4CD_api.c **** 	uint32_t tmp, ls_byte, ms_byte, macro_period_us;
 1074              		.loc 1 455 2 is_stmt 1 view .LVU322
 456:Drivers/VL53L4CD_ULD_Driver/VL53L4CD_api.c **** 	float_t clock_pll_factor = (float_t)1.065;
 1075              		.loc 1 456 2 view .LVU323
 1076              	.LVL143:
 457:Drivers/VL53L4CD_ULD_Driver/VL53L4CD_api.c **** 
 458:Drivers/VL53L4CD_ULD_Driver/VL53L4CD_api.c **** 	/* Get InterMeasurement */
 459:Drivers/VL53L4CD_ULD_Driver/VL53L4CD_api.c **** 	status |= VL53L4CD_RdDWord(dev, VL53L4CD_INTERMEASUREMENT_MS, &tmp);
 1077              		.loc 1 459 2 view .LVU324
 1078              		.loc 1 459 12 is_stmt 0 view .LVU325
 1079 0014 01AA     		add	r2, sp, #4
 1080              	.LVL144:
 1081              		.loc 1 459 12 view .LVU326
 1082 0016 6C21     		movs	r1, #108
 1083              	.LVL145:
 1084              		.loc 1 459 12 view .LVU327
 1085 0018 FFF7FEFF 		bl	VL53L4CD_RdDWord
 1086              	.LVL146:
 1087              		.loc 1 459 12 view .LVU328
 1088 001c 0546     		mov	r5, r0
 1089              	.LVL147:
 460:Drivers/VL53L4CD_ULD_Driver/VL53L4CD_api.c **** 	status |= VL53L4CD_RdWord(dev,
 1090              		.loc 1 460 2 is_stmt 1 view .LVU329
 1091              		.loc 1 460 12 is_stmt 0 view .LVU330
 1092 001e 0DF10A02 		add	r2, sp, #10
 1093 0022 DE21     		movs	r1, #222
 1094 0024 3046     		mov	r0, r6
 1095 0026 FFF7FEFF 		bl	VL53L4CD_RdWord
 1096              	.LVL148:
 1097              		.loc 1 460 9 view .LVU331
 1098 002a 0543     		orrs	r5, r5, r0
 1099              	.LVL149:
 1100              		.loc 1 460 9 view .LVU332
 1101 002c EDB2     		uxtb	r5, r5
 1102              	.LVL150:
 461:Drivers/VL53L4CD_ULD_Driver/VL53L4CD_api.c **** 			VL53L4CD_RESULT__OSC_CALIBRATE_VAL, &clock_pll);
 462:Drivers/VL53L4CD_ULD_Driver/VL53L4CD_api.c **** 	clock_pll = clock_pll & (uint16_t)0x3FF;
 1103              		.loc 1 462 2 is_stmt 1 view .LVU333
 1104              		.loc 1 462 24 is_stmt 0 view .LVU334
 1105 002e BDF80A30 		ldrh	r3, [sp, #10]
 1106 0032 C3F30903 		ubfx	r3, r3, #0, #10
 1107              		.loc 1 462 12 view .LVU335
 1108 0036 ADF80A30 		strh	r3, [sp, #10]	@ movhi
 463:Drivers/VL53L4CD_ULD_Driver/VL53L4CD_api.c **** 	clock_pll_factor = clock_pll_factor * (float_t)clock_pll;
 1109              		.loc 1 463 2 is_stmt 1 view .LVU336
 1110              		.loc 1 463 40 is_stmt 0 view .LVU337
 1111 003a 07EE903A 		vmov	s15, r3	@ int
 1112 003e F8EE677A 		vcvt.f32.u32	s15, s15
 1113              		.loc 1 463 19 view .LVU338
 1114 0042 9FED297A 		vldr.32	s14, .L61
 1115 0046 67EE877A 		vmul.f32	s15, s15, s14
 1116              	.LVL151:
ARM GAS  C:\Users\Dell\AppData\Local\Temp\ccer9IQj.s 			page 31


 464:Drivers/VL53L4CD_ULD_Driver/VL53L4CD_api.c **** 	clock_pll = (uint16_t)clock_pll_factor;
 1117              		.loc 1 464 2 is_stmt 1 view .LVU339
 1118              		.loc 1 464 14 is_stmt 0 view .LVU340
 1119 004a FCEEE77A 		vcvt.u32.f32	s15, s15
 1120              	.LVL152:
 1121              		.loc 1 464 14 view .LVU341
 1122 004e 17EE903A 		vmov	r3, s15	@ int
 1123              	.LVL153:
 1124              		.loc 1 464 14 view .LVU342
 1125 0052 9BB2     		uxth	r3, r3
 1126              		.loc 1 464 12 view .LVU343
 1127 0054 ADF80A30 		strh	r3, [sp, #10]	@ movhi
 465:Drivers/VL53L4CD_ULD_Driver/VL53L4CD_api.c **** 	*p_inter_measurement_ms = (uint16_t)(tmp/(uint32_t)clock_pll);
 1128              		.loc 1 465 2 is_stmt 1 view .LVU344
 1129              		.loc 1 465 42 is_stmt 0 view .LVU345
 1130 0058 0199     		ldr	r1, [sp, #4]
 1131 005a B1FBF3F1 		udiv	r1, r1, r3
 1132              		.loc 1 465 26 view .LVU346
 1133 005e 89B2     		uxth	r1, r1
 1134 0060 3960     		str	r1, [r7]
 466:Drivers/VL53L4CD_ULD_Driver/VL53L4CD_api.c **** 
 467:Drivers/VL53L4CD_ULD_Driver/VL53L4CD_api.c **** 	/* Get TimingBudget */
 468:Drivers/VL53L4CD_ULD_Driver/VL53L4CD_api.c **** 	status |= VL53L4CD_RdWord(dev, 0x0006, &osc_frequency);
 1135              		.loc 1 468 2 is_stmt 1 view .LVU347
 1136              		.loc 1 468 12 is_stmt 0 view .LVU348
 1137 0062 0DF10E02 		add	r2, sp, #14
 1138 0066 0621     		movs	r1, #6
 1139 0068 3046     		mov	r0, r6
 1140 006a FFF7FEFF 		bl	VL53L4CD_RdWord
 1141              	.LVL154:
 1142              		.loc 1 468 9 view .LVU349
 1143 006e 0543     		orrs	r5, r5, r0
 1144              	.LVL155:
 1145              		.loc 1 468 9 view .LVU350
 1146 0070 EDB2     		uxtb	r5, r5
 1147              	.LVL156:
 469:Drivers/VL53L4CD_ULD_Driver/VL53L4CD_api.c **** 	status |= VL53L4CD_RdWord(dev, VL53L4CD_RANGE_CONFIG_A,
 1148              		.loc 1 469 2 is_stmt 1 view .LVU351
 1149              		.loc 1 469 12 is_stmt 0 view .LVU352
 1150 0072 03AA     		add	r2, sp, #12
 1151 0074 5E21     		movs	r1, #94
 1152 0076 3046     		mov	r0, r6
 1153 0078 FFF7FEFF 		bl	VL53L4CD_RdWord
 1154              	.LVL157:
 1155              		.loc 1 469 9 view .LVU353
 1156 007c 2843     		orrs	r0, r0, r5
 1157 007e C0B2     		uxtb	r0, r0
 1158              	.LVL158:
 470:Drivers/VL53L4CD_ULD_Driver/VL53L4CD_api.c **** 		&range_config_macrop_high);
 471:Drivers/VL53L4CD_ULD_Driver/VL53L4CD_api.c **** 
 472:Drivers/VL53L4CD_ULD_Driver/VL53L4CD_api.c **** 	macro_period_us = (uint32_t)((uint32_t)2304 * ((uint32_t)0x40000000
 1159              		.loc 1 472 2 is_stmt 1 view .LVU354
 473:Drivers/VL53L4CD_ULD_Driver/VL53L4CD_api.c **** 			/ (uint32_t)osc_frequency)) >> 6;
 1160              		.loc 1 473 6 is_stmt 0 view .LVU355
 1161 0080 BDF80E30 		ldrh	r3, [sp, #14]
 1162              		.loc 1 473 4 view .LVU356
 1163 0084 4FF08042 		mov	r2, #1073741824
ARM GAS  C:\Users\Dell\AppData\Local\Temp\ccer9IQj.s 			page 32


 1164 0088 B2FBF3F2 		udiv	r2, r2, r3
 472:Drivers/VL53L4CD_ULD_Driver/VL53L4CD_api.c **** 			/ (uint32_t)osc_frequency)) >> 6;
 1165              		.loc 1 472 20 view .LVU357
 1166 008c 02EBC202 		add	r2, r2, r2, lsl #3
 1167              	.LVL159:
 474:Drivers/VL53L4CD_ULD_Driver/VL53L4CD_api.c **** 	ls_byte = (range_config_macrop_high & (uint32_t)0x00FF) << 4;
 1168              		.loc 1 474 2 is_stmt 1 view .LVU358
 1169              		.loc 1 474 58 is_stmt 0 view .LVU359
 1170 0090 BDF80C10 		ldrh	r1, [sp, #12]
 1171 0094 0B01     		lsls	r3, r1, #4
 1172              		.loc 1 474 10 view .LVU360
 1173 0096 03F47F65 		and	r5, r3, #4080
 1174              	.LVL160:
 475:Drivers/VL53L4CD_ULD_Driver/VL53L4CD_api.c **** 	ms_byte = (range_config_macrop_high & (uint32_t)0xFF00) >> 8;
 1175              		.loc 1 475 2 is_stmt 1 view .LVU361
 1176              		.loc 1 475 58 is_stmt 0 view .LVU362
 1177 009a 090A     		lsrs	r1, r1, #8
 1178              	.LVL161:
 476:Drivers/VL53L4CD_ULD_Driver/VL53L4CD_api.c **** 	ms_byte = (uint32_t)0x04 - (ms_byte - (uint32_t)1) - (uint32_t)1;
 1179              		.loc 1 476 2 is_stmt 1 view .LVU363
 1180              		.loc 1 476 10 is_stmt 0 view .LVU364
 1181 009c C1F10401 		rsb	r1, r1, #4
 1182              	.LVL162:
 477:Drivers/VL53L4CD_ULD_Driver/VL53L4CD_api.c **** 
 478:Drivers/VL53L4CD_ULD_Driver/VL53L4CD_api.c **** 	macro_period_us = macro_period_us * (uint32_t)16;
 1183              		.loc 1 478 2 is_stmt 1 view .LVU365
 479:Drivers/VL53L4CD_ULD_Driver/VL53L4CD_api.c **** 	*p_timing_budget_ms = (((ls_byte + (uint32_t)1)*(macro_period_us>> 6))
 1184              		.loc 1 479 2 view .LVU366
 1185              		.loc 1 479 66 is_stmt 0 view .LVU367
 1186 00a0 22F07F43 		bic	r3, r2, #-16777216
 1187              		.loc 1 479 49 view .LVU368
 1188 00a4 05FB0333 		mla	r3, r5, r3, r3
 480:Drivers/VL53L4CD_ULD_Driver/VL53L4CD_api.c **** 		 - ((macro_period_us>> 6)>>1)) >> 12;
 1189              		.loc 1 480 28 view .LVU369
 1190 00a8 C2F35602 		ubfx	r2, r2, #1, #23
 1191              	.LVL163:
 1192              		.loc 1 480 4 view .LVU370
 1193 00ac 9B1A     		subs	r3, r3, r2
 1194              		.loc 1 480 34 view .LVU371
 1195 00ae 1B0B     		lsrs	r3, r3, #12
 479:Drivers/VL53L4CD_ULD_Driver/VL53L4CD_api.c **** 	*p_timing_budget_ms = (((ls_byte + (uint32_t)1)*(macro_period_us>> 6))
 1196              		.loc 1 479 22 view .LVU372
 1197 00b0 2360     		str	r3, [r4]
 1198              	.LVL164:
 481:Drivers/VL53L4CD_ULD_Driver/VL53L4CD_api.c **** 
 482:Drivers/VL53L4CD_ULD_Driver/VL53L4CD_api.c **** 	if(ms_byte < (uint8_t)12)
 1199              		.loc 1 482 2 is_stmt 1 view .LVU373
 1200              		.loc 1 482 4 is_stmt 0 view .LVU374
 1201 00b2 0B29     		cmp	r1, #11
 1202 00b4 02D8     		bhi	.L57
 483:Drivers/VL53L4CD_ULD_Driver/VL53L4CD_api.c **** 	{
 484:Drivers/VL53L4CD_ULD_Driver/VL53L4CD_api.c **** 		  *p_timing_budget_ms = (uint32_t)(*p_timing_budget_ms
 1203              		.loc 1 484 5 is_stmt 1 view .LVU375
 485:Drivers/VL53L4CD_ULD_Driver/VL53L4CD_api.c **** 				   >> (uint8_t)ms_byte);
 1204              		.loc 1 485 11 is_stmt 0 view .LVU376
 1205 00b6 C9B2     		uxtb	r1, r1
 1206              	.LVL165:
ARM GAS  C:\Users\Dell\AppData\Local\Temp\ccer9IQj.s 			page 33


 1207              		.loc 1 485 8 view .LVU377
 1208 00b8 CB40     		lsrs	r3, r3, r1
 484:Drivers/VL53L4CD_ULD_Driver/VL53L4CD_api.c **** 				   >> (uint8_t)ms_byte);
 1209              		.loc 1 484 25 view .LVU378
 1210 00ba 2360     		str	r3, [r4]
 1211              	.L57:
 486:Drivers/VL53L4CD_ULD_Driver/VL53L4CD_api.c **** 	}
 487:Drivers/VL53L4CD_ULD_Driver/VL53L4CD_api.c **** 	 
 488:Drivers/VL53L4CD_ULD_Driver/VL53L4CD_api.c **** 	 /* Mode continuous */
 489:Drivers/VL53L4CD_ULD_Driver/VL53L4CD_api.c **** 	 if(tmp == (uint32_t)0)
 1212              		.loc 1 489 3 is_stmt 1 view .LVU379
 1213              		.loc 1 489 10 is_stmt 0 view .LVU380
 1214 00bc 019B     		ldr	r3, [sp, #4]
 1215              		.loc 1 489 5 view .LVU381
 1216 00be 5BB9     		cbnz	r3, .L58
 490:Drivers/VL53L4CD_ULD_Driver/VL53L4CD_api.c **** 	 {
 491:Drivers/VL53L4CD_ULD_Driver/VL53L4CD_api.c **** 		*p_timing_budget_ms += (uint32_t)2500;
 1217              		.loc 1 491 3 is_stmt 1 view .LVU382
 1218              		.loc 1 491 23 is_stmt 0 view .LVU383
 1219 00c0 2368     		ldr	r3, [r4]
 1220 00c2 03F6C413 		addw	r3, r3, #2500
 1221 00c6 2360     		str	r3, [r4]
 1222              	.L59:
 492:Drivers/VL53L4CD_ULD_Driver/VL53L4CD_api.c **** 	 }
 493:Drivers/VL53L4CD_ULD_Driver/VL53L4CD_api.c **** 	 /* Mode autonomous */
 494:Drivers/VL53L4CD_ULD_Driver/VL53L4CD_api.c **** 	 else
 495:Drivers/VL53L4CD_ULD_Driver/VL53L4CD_api.c **** 	 {
 496:Drivers/VL53L4CD_ULD_Driver/VL53L4CD_api.c **** 	      *p_timing_budget_ms *= (uint32_t)2;
 497:Drivers/VL53L4CD_ULD_Driver/VL53L4CD_api.c **** 	      *p_timing_budget_ms += (uint32_t)4300;
 498:Drivers/VL53L4CD_ULD_Driver/VL53L4CD_api.c **** 	 }
 499:Drivers/VL53L4CD_ULD_Driver/VL53L4CD_api.c **** 
 500:Drivers/VL53L4CD_ULD_Driver/VL53L4CD_api.c **** 	 *p_timing_budget_ms = *p_timing_budget_ms/(uint32_t)1000;
 1223              		.loc 1 500 3 is_stmt 1 view .LVU384
 1224              		.loc 1 500 25 is_stmt 0 view .LVU385
 1225 00c8 2368     		ldr	r3, [r4]
 1226              		.loc 1 500 44 view .LVU386
 1227 00ca 084A     		ldr	r2, .L61+4
 1228 00cc A2FB0323 		umull	r2, r3, r2, r3
 1229 00d0 9B09     		lsrs	r3, r3, #6
 1230              		.loc 1 500 23 view .LVU387
 1231 00d2 2360     		str	r3, [r4]
 501:Drivers/VL53L4CD_ULD_Driver/VL53L4CD_api.c **** 
 502:Drivers/VL53L4CD_ULD_Driver/VL53L4CD_api.c **** 	return status;
 1232              		.loc 1 502 2 is_stmt 1 view .LVU388
 503:Drivers/VL53L4CD_ULD_Driver/VL53L4CD_api.c **** }
 1233              		.loc 1 503 1 is_stmt 0 view .LVU389
 1234 00d4 05B0     		add	sp, sp, #20
 1235              	.LCFI20:
 1236              		.cfi_remember_state
 1237              		.cfi_def_cfa_offset 20
 1238              		@ sp needed
 1239 00d6 F0BD     		pop	{r4, r5, r6, r7, pc}
 1240              	.LVL166:
 1241              	.L58:
 1242              	.LCFI21:
 1243              		.cfi_restore_state
 496:Drivers/VL53L4CD_ULD_Driver/VL53L4CD_api.c **** 	      *p_timing_budget_ms += (uint32_t)4300;
ARM GAS  C:\Users\Dell\AppData\Local\Temp\ccer9IQj.s 			page 34


 1244              		.loc 1 496 8 is_stmt 1 view .LVU390
 496:Drivers/VL53L4CD_ULD_Driver/VL53L4CD_api.c **** 	      *p_timing_budget_ms += (uint32_t)4300;
 1245              		.loc 1 496 28 is_stmt 0 view .LVU391
 1246 00d8 2368     		ldr	r3, [r4]
 1247 00da 5B00     		lsls	r3, r3, #1
 1248 00dc 2360     		str	r3, [r4]
 497:Drivers/VL53L4CD_ULD_Driver/VL53L4CD_api.c **** 	 }
 1249              		.loc 1 497 8 is_stmt 1 view .LVU392
 497:Drivers/VL53L4CD_ULD_Driver/VL53L4CD_api.c **** 	 }
 1250              		.loc 1 497 28 is_stmt 0 view .LVU393
 1251 00de 03F58653 		add	r3, r3, #4288
 1252 00e2 0C33     		adds	r3, r3, #12
 1253 00e4 2360     		str	r3, [r4]
 1254 00e6 EFE7     		b	.L59
 1255              	.L62:
 1256              		.align	2
 1257              	.L61:
 1258 00e8 EC51883F 		.word	1065898476
 1259 00ec D34D6210 		.word	274877907
 1260              		.cfi_endproc
 1261              	.LFE139:
 1263              		.section	.text.VL53L4CD_GetResult,"ax",%progbits
 1264              		.align	1
 1265              		.global	VL53L4CD_GetResult
 1266              		.syntax unified
 1267              		.thumb
 1268              		.thumb_func
 1270              	VL53L4CD_GetResult:
 1271              	.LVL167:
 1272              	.LFB140:
 504:Drivers/VL53L4CD_ULD_Driver/VL53L4CD_api.c **** 
 505:Drivers/VL53L4CD_ULD_Driver/VL53L4CD_api.c **** VL53L4CD_Error VL53L4CD_GetResult(
 506:Drivers/VL53L4CD_ULD_Driver/VL53L4CD_api.c **** 		Dev_t dev,
 507:Drivers/VL53L4CD_ULD_Driver/VL53L4CD_api.c **** 		VL53L4CD_ResultsData_t *p_result)
 508:Drivers/VL53L4CD_ULD_Driver/VL53L4CD_api.c **** {
 1273              		.loc 1 508 1 is_stmt 1 view -0
 1274              		.cfi_startproc
 1275              		@ args = 0, pretend = 0, frame = 32
 1276              		@ frame_needed = 0, uses_anonymous_args = 0
 1277              		.loc 1 508 1 is_stmt 0 view .LVU395
 1278 0000 F0B5     		push	{r4, r5, r6, r7, lr}
 1279              	.LCFI22:
 1280              		.cfi_def_cfa_offset 20
 1281              		.cfi_offset 4, -20
 1282              		.cfi_offset 5, -16
 1283              		.cfi_offset 6, -12
 1284              		.cfi_offset 7, -8
 1285              		.cfi_offset 14, -4
 1286 0002 89B0     		sub	sp, sp, #36
 1287              	.LCFI23:
 1288              		.cfi_def_cfa_offset 56
 1289 0004 0646     		mov	r6, r0
 1290 0006 0D46     		mov	r5, r1
 509:Drivers/VL53L4CD_ULD_Driver/VL53L4CD_api.c **** 	VL53L4CD_Error status = VL53L4CD_ERROR_NONE;
 1291              		.loc 1 509 2 is_stmt 1 view .LVU396
 1292              	.LVL168:
 510:Drivers/VL53L4CD_ULD_Driver/VL53L4CD_api.c **** 	uint16_t temp_16;
ARM GAS  C:\Users\Dell\AppData\Local\Temp\ccer9IQj.s 			page 35


 1293              		.loc 1 510 2 view .LVU397
 511:Drivers/VL53L4CD_ULD_Driver/VL53L4CD_api.c **** 	uint8_t temp_8;
 1294              		.loc 1 511 2 view .LVU398
 512:Drivers/VL53L4CD_ULD_Driver/VL53L4CD_api.c **** 	uint8_t status_rtn[24] = { 255, 255, 255, 5, 2, 4, 1, 7, 3,
 1295              		.loc 1 512 2 view .LVU399
 1296              		.loc 1 512 10 is_stmt 0 view .LVU400
 1297 0008 01AC     		add	r4, sp, #4
 1298 000a 324F     		ldr	r7, .L66
 1299 000c 0FCF     		ldmia	r7!, {r0, r1, r2, r3}
 1300              	.LVL169:
 1301              		.loc 1 512 10 view .LVU401
 1302 000e 0FC4     		stmia	r4!, {r0, r1, r2, r3}
 1303 0010 97E80300 		ldm	r7, {r0, r1}
 1304 0014 84E80300 		stm	r4, {r0, r1}
 513:Drivers/VL53L4CD_ULD_Driver/VL53L4CD_api.c **** 			0, 255, 255, 9, 13, 255, 255, 255, 255, 10, 6,
 514:Drivers/VL53L4CD_ULD_Driver/VL53L4CD_api.c **** 			255, 255, 11, 12 };
 515:Drivers/VL53L4CD_ULD_Driver/VL53L4CD_api.c **** 
 516:Drivers/VL53L4CD_ULD_Driver/VL53L4CD_api.c **** 	status |= VL53L4CD_RdByte(dev, VL53L4CD_RESULT__RANGE_STATUS,
 1305              		.loc 1 516 2 is_stmt 1 view .LVU402
 1306              		.loc 1 516 12 is_stmt 0 view .LVU403
 1307 0018 0DF11D02 		add	r2, sp, #29
 1308 001c 8921     		movs	r1, #137
 1309 001e 3046     		mov	r0, r6
 1310 0020 FFF7FEFF 		bl	VL53L4CD_RdByte
 1311              	.LVL170:
 1312 0024 0446     		mov	r4, r0
 1313              	.LVL171:
 517:Drivers/VL53L4CD_ULD_Driver/VL53L4CD_api.c **** 		&temp_8);
 518:Drivers/VL53L4CD_ULD_Driver/VL53L4CD_api.c **** 	temp_8 = temp_8 & (uint8_t)0x1F;
 1314              		.loc 1 518 2 is_stmt 1 view .LVU404
 1315              		.loc 1 518 18 is_stmt 0 view .LVU405
 1316 0026 9DF81D30 		ldrb	r3, [sp, #29]	@ zero_extendqisi2
 1317 002a 03F01F03 		and	r3, r3, #31
 1318              		.loc 1 518 9 view .LVU406
 1319 002e 8DF81D30 		strb	r3, [sp, #29]
 519:Drivers/VL53L4CD_ULD_Driver/VL53L4CD_api.c **** 	if (temp_8 < (uint8_t)24)
 1320              		.loc 1 519 2 is_stmt 1 view .LVU407
 1321              		.loc 1 519 5 is_stmt 0 view .LVU408
 1322 0032 172B     		cmp	r3, #23
 1323 0034 05D8     		bhi	.L64
 520:Drivers/VL53L4CD_ULD_Driver/VL53L4CD_api.c **** 	{
 521:Drivers/VL53L4CD_ULD_Driver/VL53L4CD_api.c **** 		temp_8 = status_rtn[temp_8];
 1324              		.loc 1 521 3 is_stmt 1 view .LVU409
 1325              		.loc 1 521 22 is_stmt 0 view .LVU410
 1326 0036 2033     		adds	r3, r3, #32
 1327 0038 6B44     		add	r3, sp, r3
 1328 003a 13F81C3C 		ldrb	r3, [r3, #-28]	@ zero_extendqisi2
 1329              		.loc 1 521 10 view .LVU411
 1330 003e 8DF81D30 		strb	r3, [sp, #29]
 1331              	.L64:
 522:Drivers/VL53L4CD_ULD_Driver/VL53L4CD_api.c **** 	}
 523:Drivers/VL53L4CD_ULD_Driver/VL53L4CD_api.c **** 	p_result->range_status = temp_8;
 1332              		.loc 1 523 2 is_stmt 1 view .LVU412
 1333              		.loc 1 523 25 is_stmt 0 view .LVU413
 1334 0042 9DF81D30 		ldrb	r3, [sp, #29]	@ zero_extendqisi2
 1335 0046 2B70     		strb	r3, [r5]
 524:Drivers/VL53L4CD_ULD_Driver/VL53L4CD_api.c **** 
ARM GAS  C:\Users\Dell\AppData\Local\Temp\ccer9IQj.s 			page 36


 525:Drivers/VL53L4CD_ULD_Driver/VL53L4CD_api.c **** 	status |= VL53L4CD_RdWord(dev, VL53L4CD_RESULT__SPAD_NB,
 1336              		.loc 1 525 2 is_stmt 1 view .LVU414
 1337              		.loc 1 525 12 is_stmt 0 view .LVU415
 1338 0048 0DF11E02 		add	r2, sp, #30
 1339 004c 8C21     		movs	r1, #140
 1340 004e 3046     		mov	r0, r6
 1341 0050 FFF7FEFF 		bl	VL53L4CD_RdWord
 1342              	.LVL172:
 1343              		.loc 1 525 9 view .LVU416
 1344 0054 0443     		orrs	r4, r4, r0
 1345              	.LVL173:
 1346              		.loc 1 525 9 view .LVU417
 1347 0056 E4B2     		uxtb	r4, r4
 1348              	.LVL174:
 526:Drivers/VL53L4CD_ULD_Driver/VL53L4CD_api.c **** 		&temp_16);
 527:Drivers/VL53L4CD_ULD_Driver/VL53L4CD_api.c **** 	p_result->number_of_spad = temp_16 / (uint16_t) 256;
 1349              		.loc 1 527 2 is_stmt 1 view .LVU418
 1350              		.loc 1 527 27 is_stmt 0 view .LVU419
 1351 0058 BDF81E30 		ldrh	r3, [sp, #30]
 1352 005c 1B0A     		lsrs	r3, r3, #8
 1353 005e AB81     		strh	r3, [r5, #12]	@ movhi
 528:Drivers/VL53L4CD_ULD_Driver/VL53L4CD_api.c **** 
 529:Drivers/VL53L4CD_ULD_Driver/VL53L4CD_api.c **** 	status |= VL53L4CD_RdWord(dev, VL53L4CD_RESULT__SIGNAL_RATE,
 1354              		.loc 1 529 2 is_stmt 1 view .LVU420
 1355              		.loc 1 529 12 is_stmt 0 view .LVU421
 1356 0060 0DF11E02 		add	r2, sp, #30
 1357 0064 8E21     		movs	r1, #142
 1358 0066 3046     		mov	r0, r6
 1359 0068 FFF7FEFF 		bl	VL53L4CD_RdWord
 1360              	.LVL175:
 1361              		.loc 1 529 9 view .LVU422
 1362 006c 0443     		orrs	r4, r4, r0
 1363              	.LVL176:
 1364              		.loc 1 529 9 view .LVU423
 1365 006e E4B2     		uxtb	r4, r4
 1366              	.LVL177:
 530:Drivers/VL53L4CD_ULD_Driver/VL53L4CD_api.c **** 		&temp_16);
 531:Drivers/VL53L4CD_ULD_Driver/VL53L4CD_api.c **** 	p_result->signal_rate_kcps = temp_16 * (uint16_t) 8;
 1367              		.loc 1 531 2 is_stmt 1 view .LVU424
 1368              		.loc 1 531 29 is_stmt 0 view .LVU425
 1369 0070 BDF81E30 		ldrh	r3, [sp, #30]
 1370 0074 DB00     		lsls	r3, r3, #3
 1371 0076 2B81     		strh	r3, [r5, #8]	@ movhi
 532:Drivers/VL53L4CD_ULD_Driver/VL53L4CD_api.c **** 
 533:Drivers/VL53L4CD_ULD_Driver/VL53L4CD_api.c **** 	status |= VL53L4CD_RdWord(dev, VL53L4CD_RESULT__AMBIENT_RATE,
 1372              		.loc 1 533 2 is_stmt 1 view .LVU426
 1373              		.loc 1 533 12 is_stmt 0 view .LVU427
 1374 0078 0DF11E02 		add	r2, sp, #30
 1375 007c 9021     		movs	r1, #144
 1376 007e 3046     		mov	r0, r6
 1377 0080 FFF7FEFF 		bl	VL53L4CD_RdWord
 1378              	.LVL178:
 1379              		.loc 1 533 9 view .LVU428
 1380 0084 0443     		orrs	r4, r4, r0
 1381              	.LVL179:
 1382              		.loc 1 533 9 view .LVU429
 1383 0086 E4B2     		uxtb	r4, r4
ARM GAS  C:\Users\Dell\AppData\Local\Temp\ccer9IQj.s 			page 37


 1384              	.LVL180:
 534:Drivers/VL53L4CD_ULD_Driver/VL53L4CD_api.c **** 		&temp_16);
 535:Drivers/VL53L4CD_ULD_Driver/VL53L4CD_api.c **** 	p_result->ambient_rate_kcps = temp_16 * (uint16_t) 8;
 1385              		.loc 1 535 2 is_stmt 1 view .LVU430
 1386              		.loc 1 535 30 is_stmt 0 view .LVU431
 1387 0088 BDF81E30 		ldrh	r3, [sp, #30]
 1388 008c DB00     		lsls	r3, r3, #3
 1389 008e AB80     		strh	r3, [r5, #4]	@ movhi
 536:Drivers/VL53L4CD_ULD_Driver/VL53L4CD_api.c **** 
 537:Drivers/VL53L4CD_ULD_Driver/VL53L4CD_api.c **** 	status |= VL53L4CD_RdWord(dev, VL53L4CD_RESULT__SIGMA,
 1390              		.loc 1 537 2 is_stmt 1 view .LVU432
 1391              		.loc 1 537 12 is_stmt 0 view .LVU433
 1392 0090 0DF11E02 		add	r2, sp, #30
 1393 0094 9221     		movs	r1, #146
 1394 0096 3046     		mov	r0, r6
 1395 0098 FFF7FEFF 		bl	VL53L4CD_RdWord
 1396              	.LVL181:
 1397              		.loc 1 537 9 view .LVU434
 1398 009c 0443     		orrs	r4, r4, r0
 1399              	.LVL182:
 1400              		.loc 1 537 9 view .LVU435
 1401 009e E4B2     		uxtb	r4, r4
 1402              	.LVL183:
 538:Drivers/VL53L4CD_ULD_Driver/VL53L4CD_api.c **** 		&temp_16);
 539:Drivers/VL53L4CD_ULD_Driver/VL53L4CD_api.c **** 	p_result->sigma_mm = temp_16 / (uint16_t) 4;
 1403              		.loc 1 539 2 is_stmt 1 view .LVU436
 1404              		.loc 1 539 21 is_stmt 0 view .LVU437
 1405 00a0 BDF81E30 		ldrh	r3, [sp, #30]
 1406 00a4 9B08     		lsrs	r3, r3, #2
 1407 00a6 EB81     		strh	r3, [r5, #14]	@ movhi
 540:Drivers/VL53L4CD_ULD_Driver/VL53L4CD_api.c **** 
 541:Drivers/VL53L4CD_ULD_Driver/VL53L4CD_api.c **** 	status |= VL53L4CD_RdWord(dev, VL53L4CD_RESULT__DISTANCE,
 1408              		.loc 1 541 2 is_stmt 1 view .LVU438
 1409              		.loc 1 541 12 is_stmt 0 view .LVU439
 1410 00a8 0DF11E02 		add	r2, sp, #30
 1411 00ac 9621     		movs	r1, #150
 1412 00ae 3046     		mov	r0, r6
 1413 00b0 FFF7FEFF 		bl	VL53L4CD_RdWord
 1414              	.LVL184:
 1415              		.loc 1 541 9 view .LVU440
 1416 00b4 2043     		orrs	r0, r0, r4
 1417              	.LVL185:
 542:Drivers/VL53L4CD_ULD_Driver/VL53L4CD_api.c **** 		&temp_16);
 543:Drivers/VL53L4CD_ULD_Driver/VL53L4CD_api.c **** 	p_result->distance_mm = temp_16;
 1418              		.loc 1 543 2 is_stmt 1 view .LVU441
 1419              		.loc 1 543 24 is_stmt 0 view .LVU442
 1420 00b6 BDF81E30 		ldrh	r3, [sp, #30]
 1421 00ba 6B80     		strh	r3, [r5, #2]	@ movhi
 544:Drivers/VL53L4CD_ULD_Driver/VL53L4CD_api.c **** 
 545:Drivers/VL53L4CD_ULD_Driver/VL53L4CD_api.c **** 	p_result->signal_per_spad_kcps = p_result->signal_rate_kcps
 1422              		.loc 1 545 2 is_stmt 1 view .LVU443
 1423              		.loc 1 545 43 is_stmt 0 view .LVU444
 1424 00bc 2A89     		ldrh	r2, [r5, #8]
 546:Drivers/VL53L4CD_ULD_Driver/VL53L4CD_api.c **** 			/p_result->number_of_spad;
 1425              		.loc 1 546 13 view .LVU445
 1426 00be A989     		ldrh	r1, [r5, #12]
 545:Drivers/VL53L4CD_ULD_Driver/VL53L4CD_api.c **** 			/p_result->number_of_spad;
ARM GAS  C:\Users\Dell\AppData\Local\Temp\ccer9IQj.s 			page 38


 1427              		.loc 1 545 33 view .LVU446
 1428 00c0 B2FBF1F2 		udiv	r2, r2, r1
 1429 00c4 6A81     		strh	r2, [r5, #10]	@ movhi
 547:Drivers/VL53L4CD_ULD_Driver/VL53L4CD_api.c **** 	p_result->ambient_per_spad_kcps = p_result->ambient_rate_kcps
 1430              		.loc 1 547 2 is_stmt 1 view .LVU447
 1431              		.loc 1 547 44 is_stmt 0 view .LVU448
 1432 00c6 AB88     		ldrh	r3, [r5, #4]
 1433              		.loc 1 547 34 view .LVU449
 1434 00c8 B3FBF1F3 		udiv	r3, r3, r1
 1435 00cc EB80     		strh	r3, [r5, #6]	@ movhi
 548:Drivers/VL53L4CD_ULD_Driver/VL53L4CD_api.c **** 			/p_result->number_of_spad;
 549:Drivers/VL53L4CD_ULD_Driver/VL53L4CD_api.c **** 
 550:Drivers/VL53L4CD_ULD_Driver/VL53L4CD_api.c **** 	return status;
 1436              		.loc 1 550 2 is_stmt 1 view .LVU450
 551:Drivers/VL53L4CD_ULD_Driver/VL53L4CD_api.c **** }
 1437              		.loc 1 551 1 is_stmt 0 view .LVU451
 1438 00ce C0B2     		uxtb	r0, r0
 1439              		.loc 1 551 1 view .LVU452
 1440 00d0 09B0     		add	sp, sp, #36
 1441              	.LCFI24:
 1442              		.cfi_def_cfa_offset 20
 1443              		@ sp needed
 1444 00d2 F0BD     		pop	{r4, r5, r6, r7, pc}
 1445              	.LVL186:
 1446              	.L67:
 1447              		.loc 1 551 1 view .LVU453
 1448              		.align	2
 1449              	.L66:
 1450 00d4 00000000 		.word	.LANCHOR1
 1451              		.cfi_endproc
 1452              	.LFE140:
 1454              		.section	.text.VL53L4CD_SetOffset,"ax",%progbits
 1455              		.align	1
 1456              		.global	VL53L4CD_SetOffset
 1457              		.syntax unified
 1458              		.thumb
 1459              		.thumb_func
 1461              	VL53L4CD_SetOffset:
 1462              	.LVL187:
 1463              	.LFB141:
 552:Drivers/VL53L4CD_ULD_Driver/VL53L4CD_api.c **** 
 553:Drivers/VL53L4CD_ULD_Driver/VL53L4CD_api.c **** VL53L4CD_Error VL53L4CD_SetOffset(
 554:Drivers/VL53L4CD_ULD_Driver/VL53L4CD_api.c **** 		Dev_t dev,
 555:Drivers/VL53L4CD_ULD_Driver/VL53L4CD_api.c **** 		int16_t OffsetValueInMm)
 556:Drivers/VL53L4CD_ULD_Driver/VL53L4CD_api.c **** {
 1464              		.loc 1 556 1 is_stmt 1 view -0
 1465              		.cfi_startproc
 1466              		@ args = 0, pretend = 0, frame = 0
 1467              		@ frame_needed = 0, uses_anonymous_args = 0
 1468              		.loc 1 556 1 is_stmt 0 view .LVU455
 1469 0000 38B5     		push	{r3, r4, r5, lr}
 1470              	.LCFI25:
 1471              		.cfi_def_cfa_offset 16
 1472              		.cfi_offset 3, -16
 1473              		.cfi_offset 4, -12
 1474              		.cfi_offset 5, -8
 1475              		.cfi_offset 14, -4
ARM GAS  C:\Users\Dell\AppData\Local\Temp\ccer9IQj.s 			page 39


 1476 0002 0546     		mov	r5, r0
 557:Drivers/VL53L4CD_ULD_Driver/VL53L4CD_api.c **** 	VL53L4CD_Error status = VL53L4CD_ERROR_NONE;
 1477              		.loc 1 557 2 is_stmt 1 view .LVU456
 1478              	.LVL188:
 558:Drivers/VL53L4CD_ULD_Driver/VL53L4CD_api.c **** 	uint16_t temp;
 1479              		.loc 1 558 2 view .LVU457
 559:Drivers/VL53L4CD_ULD_Driver/VL53L4CD_api.c **** 
 560:Drivers/VL53L4CD_ULD_Driver/VL53L4CD_api.c **** 	temp = (uint16_t)((uint16_t)OffsetValueInMm*(uint16_t)4);
 1480              		.loc 1 560 2 view .LVU458
 1481              		.loc 1 560 20 is_stmt 0 view .LVU459
 1482 0004 8AB2     		uxth	r2, r1
 1483              		.loc 1 560 7 view .LVU460
 1484 0006 9200     		lsls	r2, r2, #2
 1485 0008 92B2     		uxth	r2, r2
 1486              	.LVL189:
 561:Drivers/VL53L4CD_ULD_Driver/VL53L4CD_api.c **** 
 562:Drivers/VL53L4CD_ULD_Driver/VL53L4CD_api.c **** 	status |= VL53L4CD_WrWord(dev, VL53L4CD_RANGE_OFFSET_MM, temp);
 1487              		.loc 1 562 2 is_stmt 1 view .LVU461
 1488              		.loc 1 562 12 is_stmt 0 view .LVU462
 1489 000a 1E21     		movs	r1, #30
 1490              	.LVL190:
 1491              		.loc 1 562 12 view .LVU463
 1492 000c FFF7FEFF 		bl	VL53L4CD_WrWord
 1493              	.LVL191:
 1494              		.loc 1 562 12 view .LVU464
 1495 0010 0446     		mov	r4, r0
 1496              	.LVL192:
 563:Drivers/VL53L4CD_ULD_Driver/VL53L4CD_api.c **** 	status |= VL53L4CD_WrWord(dev, VL53L4CD_INNER_OFFSET_MM, (uint8_t)0x0);
 1497              		.loc 1 563 2 is_stmt 1 view .LVU465
 1498              		.loc 1 563 12 is_stmt 0 view .LVU466
 1499 0012 0022     		movs	r2, #0
 1500 0014 2021     		movs	r1, #32
 1501 0016 2846     		mov	r0, r5
 1502 0018 FFF7FEFF 		bl	VL53L4CD_WrWord
 1503              	.LVL193:
 1504              		.loc 1 563 9 view .LVU467
 1505 001c 0443     		orrs	r4, r4, r0
 1506              	.LVL194:
 1507              		.loc 1 563 9 view .LVU468
 1508 001e E4B2     		uxtb	r4, r4
 1509              	.LVL195:
 564:Drivers/VL53L4CD_ULD_Driver/VL53L4CD_api.c **** 	status |= VL53L4CD_WrWord(dev, VL53L4CD_OUTER_OFFSET_MM, (uint8_t)0x0);
 1510              		.loc 1 564 2 is_stmt 1 view .LVU469
 1511              		.loc 1 564 12 is_stmt 0 view .LVU470
 1512 0020 0022     		movs	r2, #0
 1513 0022 2221     		movs	r1, #34
 1514 0024 2846     		mov	r0, r5
 1515 0026 FFF7FEFF 		bl	VL53L4CD_WrWord
 1516              	.LVL196:
 1517              		.loc 1 564 9 view .LVU471
 1518 002a 2043     		orrs	r0, r0, r4
 1519              	.LVL197:
 565:Drivers/VL53L4CD_ULD_Driver/VL53L4CD_api.c **** 	return status;
 1520              		.loc 1 565 2 is_stmt 1 view .LVU472
 566:Drivers/VL53L4CD_ULD_Driver/VL53L4CD_api.c **** }
 1521              		.loc 1 566 1 is_stmt 0 view .LVU473
 1522 002c C0B2     		uxtb	r0, r0
ARM GAS  C:\Users\Dell\AppData\Local\Temp\ccer9IQj.s 			page 40


 1523              		.loc 1 566 1 view .LVU474
 1524 002e 38BD     		pop	{r3, r4, r5, pc}
 1525              		.cfi_endproc
 1526              	.LFE141:
 1528              		.section	.text.VL53L4CD_GetOffset,"ax",%progbits
 1529              		.align	1
 1530              		.global	VL53L4CD_GetOffset
 1531              		.syntax unified
 1532              		.thumb
 1533              		.thumb_func
 1535              	VL53L4CD_GetOffset:
 1536              	.LVL198:
 1537              	.LFB142:
 567:Drivers/VL53L4CD_ULD_Driver/VL53L4CD_api.c **** 
 568:Drivers/VL53L4CD_ULD_Driver/VL53L4CD_api.c **** VL53L4CD_Error  VL53L4CD_GetOffset(
 569:Drivers/VL53L4CD_ULD_Driver/VL53L4CD_api.c **** 		Dev_t dev,
 570:Drivers/VL53L4CD_ULD_Driver/VL53L4CD_api.c **** 		int16_t *p_offset)
 571:Drivers/VL53L4CD_ULD_Driver/VL53L4CD_api.c **** {
 1538              		.loc 1 571 1 is_stmt 1 view -0
 1539              		.cfi_startproc
 1540              		@ args = 0, pretend = 0, frame = 8
 1541              		@ frame_needed = 0, uses_anonymous_args = 0
 1542              		.loc 1 571 1 is_stmt 0 view .LVU476
 1543 0000 10B5     		push	{r4, lr}
 1544              	.LCFI26:
 1545              		.cfi_def_cfa_offset 8
 1546              		.cfi_offset 4, -8
 1547              		.cfi_offset 14, -4
 1548 0002 82B0     		sub	sp, sp, #8
 1549              	.LCFI27:
 1550              		.cfi_def_cfa_offset 16
 1551 0004 0C46     		mov	r4, r1
 572:Drivers/VL53L4CD_ULD_Driver/VL53L4CD_api.c **** 	VL53L4CD_Error status = VL53L4CD_ERROR_NONE;
 1552              		.loc 1 572 2 is_stmt 1 view .LVU477
 1553              	.LVL199:
 573:Drivers/VL53L4CD_ULD_Driver/VL53L4CD_api.c **** 	uint16_t temp;
 1554              		.loc 1 573 2 view .LVU478
 574:Drivers/VL53L4CD_ULD_Driver/VL53L4CD_api.c **** 
 575:Drivers/VL53L4CD_ULD_Driver/VL53L4CD_api.c **** 	status |= VL53L4CD_RdWord(dev,VL53L4CD_RANGE_OFFSET_MM, &temp);
 1555              		.loc 1 575 2 view .LVU479
 1556              		.loc 1 575 12 is_stmt 0 view .LVU480
 1557 0006 0DF10602 		add	r2, sp, #6
 1558 000a 1E21     		movs	r1, #30
 1559              	.LVL200:
 1560              		.loc 1 575 12 view .LVU481
 1561 000c FFF7FEFF 		bl	VL53L4CD_RdWord
 1562              	.LVL201:
 576:Drivers/VL53L4CD_ULD_Driver/VL53L4CD_api.c **** 
 577:Drivers/VL53L4CD_ULD_Driver/VL53L4CD_api.c **** 	temp = temp<<3;
 1563              		.loc 1 577 2 is_stmt 1 view .LVU482
 1564              		.loc 1 577 13 is_stmt 0 view .LVU483
 1565 0010 BDF80630 		ldrh	r3, [sp, #6]
 1566 0014 DB00     		lsls	r3, r3, #3
 1567 0016 9BB2     		uxth	r3, r3
 1568              		.loc 1 577 7 view .LVU484
 1569 0018 ADF80630 		strh	r3, [sp, #6]	@ movhi
 578:Drivers/VL53L4CD_ULD_Driver/VL53L4CD_api.c **** 	temp = temp>>5;
ARM GAS  C:\Users\Dell\AppData\Local\Temp\ccer9IQj.s 			page 41


 1570              		.loc 1 578 2 is_stmt 1 view .LVU485
 1571              		.loc 1 578 7 is_stmt 0 view .LVU486
 1572 001c 5B09     		lsrs	r3, r3, #5
 1573 001e ADF80630 		strh	r3, [sp, #6]	@ movhi
 579:Drivers/VL53L4CD_ULD_Driver/VL53L4CD_api.c **** 	*p_offset = (int16_t)(temp);
 1574              		.loc 1 579 2 is_stmt 1 view .LVU487
 1575              		.loc 1 579 14 is_stmt 0 view .LVU488
 1576 0022 1AB2     		sxth	r2, r3
 1577              		.loc 1 579 12 view .LVU489
 1578 0024 2280     		strh	r2, [r4]	@ movhi
 580:Drivers/VL53L4CD_ULD_Driver/VL53L4CD_api.c **** 
 581:Drivers/VL53L4CD_ULD_Driver/VL53L4CD_api.c **** 	if(*p_offset > 1024)
 1579              		.loc 1 581 2 is_stmt 1 view .LVU490
 1580              		.loc 1 581 4 is_stmt 0 view .LVU491
 1581 0026 B2F5806F 		cmp	r2, #1024
 1582 002a 02DD     		ble	.L71
 582:Drivers/VL53L4CD_ULD_Driver/VL53L4CD_api.c **** 	{
 583:Drivers/VL53L4CD_ULD_Driver/VL53L4CD_api.c **** 		*p_offset = *p_offset - 2048;
 1583              		.loc 1 583 3 is_stmt 1 view .LVU492
 1584              		.loc 1 583 25 is_stmt 0 view .LVU493
 1585 002c A3F50063 		sub	r3, r3, #2048
 1586              		.loc 1 583 13 view .LVU494
 1587 0030 2380     		strh	r3, [r4]	@ movhi
 1588              	.L71:
 584:Drivers/VL53L4CD_ULD_Driver/VL53L4CD_api.c **** 	}
 585:Drivers/VL53L4CD_ULD_Driver/VL53L4CD_api.c **** 
 586:Drivers/VL53L4CD_ULD_Driver/VL53L4CD_api.c **** 	return status;
 1589              		.loc 1 586 2 is_stmt 1 view .LVU495
 587:Drivers/VL53L4CD_ULD_Driver/VL53L4CD_api.c **** }
 1590              		.loc 1 587 1 is_stmt 0 view .LVU496
 1591 0032 02B0     		add	sp, sp, #8
 1592              	.LCFI28:
 1593              		.cfi_def_cfa_offset 8
 1594              		@ sp needed
 1595 0034 10BD     		pop	{r4, pc}
 1596              		.loc 1 587 1 view .LVU497
 1597              		.cfi_endproc
 1598              	.LFE142:
 1600              		.section	.text.VL53L4CD_SetXtalk,"ax",%progbits
 1601              		.align	1
 1602              		.global	VL53L4CD_SetXtalk
 1603              		.syntax unified
 1604              		.thumb
 1605              		.thumb_func
 1607              	VL53L4CD_SetXtalk:
 1608              	.LVL202:
 1609              	.LFB143:
 588:Drivers/VL53L4CD_ULD_Driver/VL53L4CD_api.c **** 
 589:Drivers/VL53L4CD_ULD_Driver/VL53L4CD_api.c **** VL53L4CD_Error VL53L4CD_SetXtalk(
 590:Drivers/VL53L4CD_ULD_Driver/VL53L4CD_api.c **** 		Dev_t dev,
 591:Drivers/VL53L4CD_ULD_Driver/VL53L4CD_api.c **** 		uint16_t XtalkValueKcps)
 592:Drivers/VL53L4CD_ULD_Driver/VL53L4CD_api.c **** {
 1610              		.loc 1 592 1 is_stmt 1 view -0
 1611              		.cfi_startproc
 1612              		@ args = 0, pretend = 0, frame = 0
 1613              		@ frame_needed = 0, uses_anonymous_args = 0
 1614              		.loc 1 592 1 is_stmt 0 view .LVU499
ARM GAS  C:\Users\Dell\AppData\Local\Temp\ccer9IQj.s 			page 42


 1615 0000 70B5     		push	{r4, r5, r6, lr}
 1616              	.LCFI29:
 1617              		.cfi_def_cfa_offset 16
 1618              		.cfi_offset 4, -16
 1619              		.cfi_offset 5, -12
 1620              		.cfi_offset 6, -8
 1621              		.cfi_offset 14, -4
 1622 0002 0646     		mov	r6, r0
 1623 0004 0D46     		mov	r5, r1
 593:Drivers/VL53L4CD_ULD_Driver/VL53L4CD_api.c **** 	VL53L4CD_Error status = VL53L4CD_ERROR_NONE;
 1624              		.loc 1 593 2 is_stmt 1 view .LVU500
 1625              	.LVL203:
 594:Drivers/VL53L4CD_ULD_Driver/VL53L4CD_api.c **** 
 595:Drivers/VL53L4CD_ULD_Driver/VL53L4CD_api.c **** 	status |= VL53L4CD_WrWord(dev,
 1626              		.loc 1 595 2 view .LVU501
 1627              		.loc 1 595 12 is_stmt 0 view .LVU502
 1628 0006 0022     		movs	r2, #0
 1629 0008 1821     		movs	r1, #24
 1630              	.LVL204:
 1631              		.loc 1 595 12 view .LVU503
 1632 000a FFF7FEFF 		bl	VL53L4CD_WrWord
 1633              	.LVL205:
 1634              		.loc 1 595 12 view .LVU504
 1635 000e 0446     		mov	r4, r0
 1636              	.LVL206:
 596:Drivers/VL53L4CD_ULD_Driver/VL53L4CD_api.c **** 		VL53L4CD_XTALK_X_PLANE_GRADIENT_KCPS, 0x0000);
 597:Drivers/VL53L4CD_ULD_Driver/VL53L4CD_api.c **** 	status |= VL53L4CD_WrWord(dev,
 1637              		.loc 1 597 2 is_stmt 1 view .LVU505
 1638              		.loc 1 597 12 is_stmt 0 view .LVU506
 1639 0010 0022     		movs	r2, #0
 1640 0012 1A21     		movs	r1, #26
 1641 0014 3046     		mov	r0, r6
 1642 0016 FFF7FEFF 		bl	VL53L4CD_WrWord
 1643              	.LVL207:
 1644              		.loc 1 597 9 view .LVU507
 1645 001a 0443     		orrs	r4, r4, r0
 1646              	.LVL208:
 1647              		.loc 1 597 9 view .LVU508
 1648 001c E4B2     		uxtb	r4, r4
 1649              	.LVL209:
 598:Drivers/VL53L4CD_ULD_Driver/VL53L4CD_api.c **** 		VL53L4CD_XTALK_Y_PLANE_GRADIENT_KCPS, 0x0000);
 599:Drivers/VL53L4CD_ULD_Driver/VL53L4CD_api.c **** 	status |= VL53L4CD_WrWord(dev,
 1650              		.loc 1 599 2 is_stmt 1 view .LVU509
 1651              		.loc 1 599 12 is_stmt 0 view .LVU510
 1652 001e 6A02     		lsls	r2, r5, #9
 1653 0020 02F47E42 		and	r2, r2, #65024
 1654 0024 1621     		movs	r1, #22
 1655 0026 3046     		mov	r0, r6
 1656 0028 FFF7FEFF 		bl	VL53L4CD_WrWord
 1657              	.LVL210:
 1658              		.loc 1 599 9 view .LVU511
 1659 002c 2043     		orrs	r0, r0, r4
 1660              	.LVL211:
 600:Drivers/VL53L4CD_ULD_Driver/VL53L4CD_api.c **** 		VL53L4CD_XTALK_PLANE_OFFSET_KCPS,
 601:Drivers/VL53L4CD_ULD_Driver/VL53L4CD_api.c **** 		(XtalkValueKcps<<9));
 602:Drivers/VL53L4CD_ULD_Driver/VL53L4CD_api.c ****         
 603:Drivers/VL53L4CD_ULD_Driver/VL53L4CD_api.c **** 	return status;
ARM GAS  C:\Users\Dell\AppData\Local\Temp\ccer9IQj.s 			page 43


 1661              		.loc 1 603 2 is_stmt 1 view .LVU512
 604:Drivers/VL53L4CD_ULD_Driver/VL53L4CD_api.c **** }
 1662              		.loc 1 604 1 is_stmt 0 view .LVU513
 1663 002e C0B2     		uxtb	r0, r0
 1664              		.loc 1 604 1 view .LVU514
 1665 0030 70BD     		pop	{r4, r5, r6, pc}
 1666              		.cfi_endproc
 1667              	.LFE143:
 1669              		.global	__aeabi_f2d
 1670              		.global	__aeabi_d2uiz
 1671              		.section	.text.VL53L4CD_GetXtalk,"ax",%progbits
 1672              		.align	1
 1673              		.global	VL53L4CD_GetXtalk
 1674              		.syntax unified
 1675              		.thumb
 1676              		.thumb_func
 1678              	VL53L4CD_GetXtalk:
 1679              	.LVL212:
 1680              	.LFB144:
 605:Drivers/VL53L4CD_ULD_Driver/VL53L4CD_api.c **** 
 606:Drivers/VL53L4CD_ULD_Driver/VL53L4CD_api.c **** VL53L4CD_Error VL53L4CD_GetXtalk(
 607:Drivers/VL53L4CD_ULD_Driver/VL53L4CD_api.c **** 		Dev_t dev,
 608:Drivers/VL53L4CD_ULD_Driver/VL53L4CD_api.c **** 		uint16_t *p_xtalk_kcps)
 609:Drivers/VL53L4CD_ULD_Driver/VL53L4CD_api.c **** {
 1681              		.loc 1 609 1 is_stmt 1 view -0
 1682              		.cfi_startproc
 1683              		@ args = 0, pretend = 0, frame = 0
 1684              		@ frame_needed = 0, uses_anonymous_args = 0
 1685              		.loc 1 609 1 is_stmt 0 view .LVU516
 1686 0000 38B5     		push	{r3, r4, r5, lr}
 1687              	.LCFI30:
 1688              		.cfi_def_cfa_offset 16
 1689              		.cfi_offset 3, -16
 1690              		.cfi_offset 4, -12
 1691              		.cfi_offset 5, -8
 1692              		.cfi_offset 14, -4
 1693 0002 0C46     		mov	r4, r1
 610:Drivers/VL53L4CD_ULD_Driver/VL53L4CD_api.c **** 	VL53L4CD_Error status = VL53L4CD_ERROR_NONE;
 1694              		.loc 1 610 2 is_stmt 1 view .LVU517
 1695              	.LVL213:
 611:Drivers/VL53L4CD_ULD_Driver/VL53L4CD_api.c **** 	float_t tmp_xtalk;
 1696              		.loc 1 611 2 view .LVU518
 612:Drivers/VL53L4CD_ULD_Driver/VL53L4CD_api.c **** 
 613:Drivers/VL53L4CD_ULD_Driver/VL53L4CD_api.c **** 	status |= VL53L4CD_RdWord(dev,
 1697              		.loc 1 613 2 view .LVU519
 1698              		.loc 1 613 12 is_stmt 0 view .LVU520
 1699 0004 0A46     		mov	r2, r1
 1700 0006 1621     		movs	r1, #22
 1701              	.LVL214:
 1702              		.loc 1 613 12 view .LVU521
 1703 0008 FFF7FEFF 		bl	VL53L4CD_RdWord
 1704              	.LVL215:
 1705              		.loc 1 613 12 view .LVU522
 1706 000c 0546     		mov	r5, r0
 1707              	.LVL216:
 614:Drivers/VL53L4CD_ULD_Driver/VL53L4CD_api.c **** 		VL53L4CD_XTALK_PLANE_OFFSET_KCPS, p_xtalk_kcps);
 615:Drivers/VL53L4CD_ULD_Driver/VL53L4CD_api.c **** 		
ARM GAS  C:\Users\Dell\AppData\Local\Temp\ccer9IQj.s 			page 44


 616:Drivers/VL53L4CD_ULD_Driver/VL53L4CD_api.c **** 	tmp_xtalk = (float_t)*p_xtalk_kcps / (float_t)512.0;
 1708              		.loc 1 616 2 is_stmt 1 view .LVU523
 1709              		.loc 1 616 23 is_stmt 0 view .LVU524
 1710 000e 2388     		ldrh	r3, [r4]
 1711 0010 07EE903A 		vmov	s15, r3	@ int
 1712              		.loc 1 616 14 view .LVU525
 1713 0014 F8EE677A 		vcvt.f32.u32	s15, s15
 1714              	.LVL217:
 617:Drivers/VL53L4CD_ULD_Driver/VL53L4CD_api.c **** 	*p_xtalk_kcps = (uint16_t)(round(tmp_xtalk));
 1715              		.loc 1 617 2 is_stmt 1 view .LVU526
 1716              		.loc 1 617 29 is_stmt 0 view .LVU527
 1717 0018 9FED097A 		vldr.32	s14, .L77
 1718 001c 67EE877A 		vmul.f32	s15, s15, s14
 1719              	.LVL218:
 1720              		.loc 1 617 29 view .LVU528
 1721 0020 17EE900A 		vmov	r0, s15
 1722 0024 FFF7FEFF 		bl	__aeabi_f2d
 1723              	.LVL219:
 1724              		.loc 1 617 29 view .LVU529
 1725 0028 41EC100B 		vmov	d0, r0, r1
 1726 002c FFF7FEFF 		bl	round
 1727              	.LVL220:
 1728 0030 51EC100B 		vmov	r0, r1, d0
 1729              		.loc 1 617 18 view .LVU530
 1730 0034 FFF7FEFF 		bl	__aeabi_d2uiz
 1731              	.LVL221:
 1732              		.loc 1 617 16 view .LVU531
 1733 0038 2080     		strh	r0, [r4]	@ movhi
 618:Drivers/VL53L4CD_ULD_Driver/VL53L4CD_api.c **** 
 619:Drivers/VL53L4CD_ULD_Driver/VL53L4CD_api.c **** 	return status;
 1734              		.loc 1 619 2 is_stmt 1 view .LVU532
 620:Drivers/VL53L4CD_ULD_Driver/VL53L4CD_api.c **** }
 1735              		.loc 1 620 1 is_stmt 0 view .LVU533
 1736 003a 2846     		mov	r0, r5
 1737 003c 38BD     		pop	{r3, r4, r5, pc}
 1738              	.LVL222:
 1739              	.L78:
 1740              		.loc 1 620 1 view .LVU534
 1741 003e 00BF     		.align	2
 1742              	.L77:
 1743 0040 0000003B 		.word	989855744
 1744              		.cfi_endproc
 1745              	.LFE144:
 1747              		.section	.text.VL53L4CD_SetDetectionThresholds,"ax",%progbits
 1748              		.align	1
 1749              		.global	VL53L4CD_SetDetectionThresholds
 1750              		.syntax unified
 1751              		.thumb
 1752              		.thumb_func
 1754              	VL53L4CD_SetDetectionThresholds:
 1755              	.LVL223:
 1756              	.LFB145:
 621:Drivers/VL53L4CD_ULD_Driver/VL53L4CD_api.c **** 
 622:Drivers/VL53L4CD_ULD_Driver/VL53L4CD_api.c **** VL53L4CD_Error VL53L4CD_SetDetectionThresholds(
 623:Drivers/VL53L4CD_ULD_Driver/VL53L4CD_api.c **** 		Dev_t dev,
 624:Drivers/VL53L4CD_ULD_Driver/VL53L4CD_api.c **** 		uint16_t distance_low_mm,
 625:Drivers/VL53L4CD_ULD_Driver/VL53L4CD_api.c **** 		uint16_t distance_high_mm,
ARM GAS  C:\Users\Dell\AppData\Local\Temp\ccer9IQj.s 			page 45


 626:Drivers/VL53L4CD_ULD_Driver/VL53L4CD_api.c **** 		uint8_t window)
 627:Drivers/VL53L4CD_ULD_Driver/VL53L4CD_api.c **** {
 1757              		.loc 1 627 1 is_stmt 1 view -0
 1758              		.cfi_startproc
 1759              		@ args = 0, pretend = 0, frame = 0
 1760              		@ frame_needed = 0, uses_anonymous_args = 0
 1761              		.loc 1 627 1 is_stmt 0 view .LVU536
 1762 0000 F8B5     		push	{r3, r4, r5, r6, r7, lr}
 1763              	.LCFI31:
 1764              		.cfi_def_cfa_offset 24
 1765              		.cfi_offset 3, -24
 1766              		.cfi_offset 4, -20
 1767              		.cfi_offset 5, -16
 1768              		.cfi_offset 6, -12
 1769              		.cfi_offset 7, -8
 1770              		.cfi_offset 14, -4
 1771 0002 0546     		mov	r5, r0
 1772 0004 0E46     		mov	r6, r1
 1773 0006 1746     		mov	r7, r2
 628:Drivers/VL53L4CD_ULD_Driver/VL53L4CD_api.c **** 	VL53L4CD_Error status = VL53L4CD_ERROR_NONE;
 1774              		.loc 1 628 2 is_stmt 1 view .LVU537
 1775              	.LVL224:
 629:Drivers/VL53L4CD_ULD_Driver/VL53L4CD_api.c **** 
 630:Drivers/VL53L4CD_ULD_Driver/VL53L4CD_api.c **** 	status |= VL53L4CD_WrByte(dev, VL53L4CD_SYSTEM__INTERRUPT, window);
 1776              		.loc 1 630 2 view .LVU538
 1777              		.loc 1 630 12 is_stmt 0 view .LVU539
 1778 0008 1A46     		mov	r2, r3
 1779              	.LVL225:
 1780              		.loc 1 630 12 view .LVU540
 1781 000a 4621     		movs	r1, #70
 1782              	.LVL226:
 1783              		.loc 1 630 12 view .LVU541
 1784 000c FFF7FEFF 		bl	VL53L4CD_WrByte
 1785              	.LVL227:
 1786              		.loc 1 630 12 view .LVU542
 1787 0010 0446     		mov	r4, r0
 1788              	.LVL228:
 631:Drivers/VL53L4CD_ULD_Driver/VL53L4CD_api.c **** 	status |= VL53L4CD_WrWord(dev, VL53L4CD_THRESH_HIGH, distance_high_mm);
 1789              		.loc 1 631 2 is_stmt 1 view .LVU543
 1790              		.loc 1 631 12 is_stmt 0 view .LVU544
 1791 0012 3A46     		mov	r2, r7
 1792 0014 7221     		movs	r1, #114
 1793 0016 2846     		mov	r0, r5
 1794 0018 FFF7FEFF 		bl	VL53L4CD_WrWord
 1795              	.LVL229:
 1796              		.loc 1 631 9 view .LVU545
 1797 001c 0443     		orrs	r4, r4, r0
 1798              	.LVL230:
 1799              		.loc 1 631 9 view .LVU546
 1800 001e E4B2     		uxtb	r4, r4
 1801              	.LVL231:
 632:Drivers/VL53L4CD_ULD_Driver/VL53L4CD_api.c **** 	status |= VL53L4CD_WrWord(dev, VL53L4CD_THRESH_LOW, distance_low_mm);
 1802              		.loc 1 632 2 is_stmt 1 view .LVU547
 1803              		.loc 1 632 12 is_stmt 0 view .LVU548
 1804 0020 3246     		mov	r2, r6
 1805 0022 7421     		movs	r1, #116
 1806 0024 2846     		mov	r0, r5
ARM GAS  C:\Users\Dell\AppData\Local\Temp\ccer9IQj.s 			page 46


 1807 0026 FFF7FEFF 		bl	VL53L4CD_WrWord
 1808              	.LVL232:
 1809              		.loc 1 632 9 view .LVU549
 1810 002a 2043     		orrs	r0, r0, r4
 1811              	.LVL233:
 633:Drivers/VL53L4CD_ULD_Driver/VL53L4CD_api.c **** 	return status;
 1812              		.loc 1 633 2 is_stmt 1 view .LVU550
 634:Drivers/VL53L4CD_ULD_Driver/VL53L4CD_api.c **** }
 1813              		.loc 1 634 1 is_stmt 0 view .LVU551
 1814 002c C0B2     		uxtb	r0, r0
 1815              		.loc 1 634 1 view .LVU552
 1816 002e F8BD     		pop	{r3, r4, r5, r6, r7, pc}
 1817              		.cfi_endproc
 1818              	.LFE145:
 1820              		.section	.text.VL53L4CD_GetDetectionThresholds,"ax",%progbits
 1821              		.align	1
 1822              		.global	VL53L4CD_GetDetectionThresholds
 1823              		.syntax unified
 1824              		.thumb
 1825              		.thumb_func
 1827              	VL53L4CD_GetDetectionThresholds:
 1828              	.LVL234:
 1829              	.LFB146:
 635:Drivers/VL53L4CD_ULD_Driver/VL53L4CD_api.c **** 
 636:Drivers/VL53L4CD_ULD_Driver/VL53L4CD_api.c **** VL53L4CD_Error VL53L4CD_GetDetectionThresholds(Dev_t dev,
 637:Drivers/VL53L4CD_ULD_Driver/VL53L4CD_api.c **** 		uint16_t *p_distance_low_mm,
 638:Drivers/VL53L4CD_ULD_Driver/VL53L4CD_api.c **** 		uint16_t *p_distance_high_mm,
 639:Drivers/VL53L4CD_ULD_Driver/VL53L4CD_api.c **** 		uint8_t *p_window)
 640:Drivers/VL53L4CD_ULD_Driver/VL53L4CD_api.c **** {
 1830              		.loc 1 640 1 is_stmt 1 view -0
 1831              		.cfi_startproc
 1832              		@ args = 0, pretend = 0, frame = 0
 1833              		@ frame_needed = 0, uses_anonymous_args = 0
 1834              		.loc 1 640 1 is_stmt 0 view .LVU554
 1835 0000 F8B5     		push	{r3, r4, r5, r6, r7, lr}
 1836              	.LCFI32:
 1837              		.cfi_def_cfa_offset 24
 1838              		.cfi_offset 3, -24
 1839              		.cfi_offset 4, -20
 1840              		.cfi_offset 5, -16
 1841              		.cfi_offset 6, -12
 1842              		.cfi_offset 7, -8
 1843              		.cfi_offset 14, -4
 1844 0002 0646     		mov	r6, r0
 1845 0004 0F46     		mov	r7, r1
 1846 0006 1D46     		mov	r5, r3
 641:Drivers/VL53L4CD_ULD_Driver/VL53L4CD_api.c **** 	VL53L4CD_Error status = VL53L4CD_ERROR_NONE;
 1847              		.loc 1 641 2 is_stmt 1 view .LVU555
 1848              	.LVL235:
 642:Drivers/VL53L4CD_ULD_Driver/VL53L4CD_api.c **** 
 643:Drivers/VL53L4CD_ULD_Driver/VL53L4CD_api.c **** 	status |= VL53L4CD_RdWord(dev, VL53L4CD_THRESH_HIGH,p_distance_high_mm);
 1849              		.loc 1 643 2 view .LVU556
 1850              		.loc 1 643 12 is_stmt 0 view .LVU557
 1851 0008 7221     		movs	r1, #114
 1852              	.LVL236:
 1853              		.loc 1 643 12 view .LVU558
 1854 000a FFF7FEFF 		bl	VL53L4CD_RdWord
ARM GAS  C:\Users\Dell\AppData\Local\Temp\ccer9IQj.s 			page 47


 1855              	.LVL237:
 1856              		.loc 1 643 12 view .LVU559
 1857 000e 0446     		mov	r4, r0
 1858              	.LVL238:
 644:Drivers/VL53L4CD_ULD_Driver/VL53L4CD_api.c **** 	status |= VL53L4CD_RdWord(dev, VL53L4CD_THRESH_LOW, p_distance_low_mm);
 1859              		.loc 1 644 2 is_stmt 1 view .LVU560
 1860              		.loc 1 644 12 is_stmt 0 view .LVU561
 1861 0010 3A46     		mov	r2, r7
 1862 0012 7421     		movs	r1, #116
 1863 0014 3046     		mov	r0, r6
 1864 0016 FFF7FEFF 		bl	VL53L4CD_RdWord
 1865              	.LVL239:
 1866              		.loc 1 644 9 view .LVU562
 1867 001a 0443     		orrs	r4, r4, r0
 1868              	.LVL240:
 1869              		.loc 1 644 9 view .LVU563
 1870 001c E4B2     		uxtb	r4, r4
 1871              	.LVL241:
 645:Drivers/VL53L4CD_ULD_Driver/VL53L4CD_api.c **** 	status |= VL53L4CD_RdByte(dev, VL53L4CD_SYSTEM__INTERRUPT, p_window);
 1872              		.loc 1 645 2 is_stmt 1 view .LVU564
 1873              		.loc 1 645 12 is_stmt 0 view .LVU565
 1874 001e 2A46     		mov	r2, r5
 1875 0020 4621     		movs	r1, #70
 1876 0022 3046     		mov	r0, r6
 1877 0024 FFF7FEFF 		bl	VL53L4CD_RdByte
 1878              	.LVL242:
 1879              		.loc 1 645 9 view .LVU566
 1880 0028 2043     		orrs	r0, r0, r4
 1881              	.LVL243:
 646:Drivers/VL53L4CD_ULD_Driver/VL53L4CD_api.c **** 	*p_window = (*p_window & (uint8_t)0x7);
 1882              		.loc 1 646 2 is_stmt 1 view .LVU567
 1883              		.loc 1 646 15 is_stmt 0 view .LVU568
 1884 002a 2B78     		ldrb	r3, [r5]	@ zero_extendqisi2
 1885              		.loc 1 646 25 view .LVU569
 1886 002c 03F00703 		and	r3, r3, #7
 1887              		.loc 1 646 12 view .LVU570
 1888 0030 2B70     		strb	r3, [r5]
 647:Drivers/VL53L4CD_ULD_Driver/VL53L4CD_api.c **** 
 648:Drivers/VL53L4CD_ULD_Driver/VL53L4CD_api.c **** 	return status;
 1889              		.loc 1 648 2 is_stmt 1 view .LVU571
 649:Drivers/VL53L4CD_ULD_Driver/VL53L4CD_api.c **** }
 1890              		.loc 1 649 1 is_stmt 0 view .LVU572
 1891 0032 C0B2     		uxtb	r0, r0
 1892              		.loc 1 649 1 view .LVU573
 1893 0034 F8BD     		pop	{r3, r4, r5, r6, r7, pc}
 1894              		.loc 1 649 1 view .LVU574
 1895              		.cfi_endproc
 1896              	.LFE146:
 1898              		.section	.text.VL53L4CD_SetSignalThreshold,"ax",%progbits
 1899              		.align	1
 1900              		.global	VL53L4CD_SetSignalThreshold
 1901              		.syntax unified
 1902              		.thumb
 1903              		.thumb_func
 1905              	VL53L4CD_SetSignalThreshold:
 1906              	.LVL244:
 1907              	.LFB147:
ARM GAS  C:\Users\Dell\AppData\Local\Temp\ccer9IQj.s 			page 48


 650:Drivers/VL53L4CD_ULD_Driver/VL53L4CD_api.c **** 
 651:Drivers/VL53L4CD_ULD_Driver/VL53L4CD_api.c **** VL53L4CD_Error VL53L4CD_SetSignalThreshold(
 652:Drivers/VL53L4CD_ULD_Driver/VL53L4CD_api.c **** 		Dev_t dev,
 653:Drivers/VL53L4CD_ULD_Driver/VL53L4CD_api.c **** 		uint16_t signal_kcps)
 654:Drivers/VL53L4CD_ULD_Driver/VL53L4CD_api.c **** {
 1908              		.loc 1 654 1 is_stmt 1 view -0
 1909              		.cfi_startproc
 1910              		@ args = 0, pretend = 0, frame = 0
 1911              		@ frame_needed = 0, uses_anonymous_args = 0
 1912              		.loc 1 654 1 is_stmt 0 view .LVU576
 1913 0000 08B5     		push	{r3, lr}
 1914              	.LCFI33:
 1915              		.cfi_def_cfa_offset 8
 1916              		.cfi_offset 3, -8
 1917              		.cfi_offset 14, -4
 655:Drivers/VL53L4CD_ULD_Driver/VL53L4CD_api.c **** 	VL53L4CD_Error status = VL53L4CD_ERROR_NONE;
 1918              		.loc 1 655 2 is_stmt 1 view .LVU577
 1919              	.LVL245:
 656:Drivers/VL53L4CD_ULD_Driver/VL53L4CD_api.c **** 
 657:Drivers/VL53L4CD_ULD_Driver/VL53L4CD_api.c **** 	status |= VL53L4CD_WrWord(dev,
 1920              		.loc 1 657 2 view .LVU578
 1921              		.loc 1 657 12 is_stmt 0 view .LVU579
 1922 0002 CA08     		lsrs	r2, r1, #3
 1923 0004 6621     		movs	r1, #102
 1924              	.LVL246:
 1925              		.loc 1 657 12 view .LVU580
 1926 0006 FFF7FEFF 		bl	VL53L4CD_WrWord
 1927              	.LVL247:
 658:Drivers/VL53L4CD_ULD_Driver/VL53L4CD_api.c **** 			VL53L4CD_MIN_COUNT_RATE_RTN_LIMIT_MCPS,signal_kcps>>3);
 659:Drivers/VL53L4CD_ULD_Driver/VL53L4CD_api.c **** 	return status;
 1928              		.loc 1 659 2 is_stmt 1 view .LVU581
 660:Drivers/VL53L4CD_ULD_Driver/VL53L4CD_api.c **** }
 1929              		.loc 1 660 1 is_stmt 0 view .LVU582
 1930 000a 08BD     		pop	{r3, pc}
 1931              		.cfi_endproc
 1932              	.LFE147:
 1934              		.section	.text.VL53L4CD_GetSignalThreshold,"ax",%progbits
 1935              		.align	1
 1936              		.global	VL53L4CD_GetSignalThreshold
 1937              		.syntax unified
 1938              		.thumb
 1939              		.thumb_func
 1941              	VL53L4CD_GetSignalThreshold:
 1942              	.LVL248:
 1943              	.LFB148:
 661:Drivers/VL53L4CD_ULD_Driver/VL53L4CD_api.c **** 
 662:Drivers/VL53L4CD_ULD_Driver/VL53L4CD_api.c **** VL53L4CD_Error VL53L4CD_GetSignalThreshold(
 663:Drivers/VL53L4CD_ULD_Driver/VL53L4CD_api.c **** 		Dev_t dev,
 664:Drivers/VL53L4CD_ULD_Driver/VL53L4CD_api.c **** 		uint16_t 	*p_signal_kcps)
 665:Drivers/VL53L4CD_ULD_Driver/VL53L4CD_api.c **** {
 1944              		.loc 1 665 1 is_stmt 1 view -0
 1945              		.cfi_startproc
 1946              		@ args = 0, pretend = 0, frame = 8
 1947              		@ frame_needed = 0, uses_anonymous_args = 0
 1948              		.loc 1 665 1 is_stmt 0 view .LVU584
 1949 0000 10B5     		push	{r4, lr}
 1950              	.LCFI34:
ARM GAS  C:\Users\Dell\AppData\Local\Temp\ccer9IQj.s 			page 49


 1951              		.cfi_def_cfa_offset 8
 1952              		.cfi_offset 4, -8
 1953              		.cfi_offset 14, -4
 1954 0002 82B0     		sub	sp, sp, #8
 1955              	.LCFI35:
 1956              		.cfi_def_cfa_offset 16
 1957 0004 0C46     		mov	r4, r1
 666:Drivers/VL53L4CD_ULD_Driver/VL53L4CD_api.c **** 	VL53L4CD_Error status = VL53L4CD_ERROR_NONE;
 1958              		.loc 1 666 2 is_stmt 1 view .LVU585
 1959              	.LVL249:
 667:Drivers/VL53L4CD_ULD_Driver/VL53L4CD_api.c **** 	uint16_t tmp = 0;
 1960              		.loc 1 667 2 view .LVU586
 1961              		.loc 1 667 11 is_stmt 0 view .LVU587
 1962 0006 0023     		movs	r3, #0
 1963 0008 ADF80630 		strh	r3, [sp, #6]	@ movhi
 668:Drivers/VL53L4CD_ULD_Driver/VL53L4CD_api.c **** 
 669:Drivers/VL53L4CD_ULD_Driver/VL53L4CD_api.c **** 	status |= VL53L4CD_RdWord(dev,
 1964              		.loc 1 669 2 is_stmt 1 view .LVU588
 1965              		.loc 1 669 12 is_stmt 0 view .LVU589
 1966 000c 0DF10602 		add	r2, sp, #6
 1967 0010 6621     		movs	r1, #102
 1968              	.LVL250:
 1969              		.loc 1 669 12 view .LVU590
 1970 0012 FFF7FEFF 		bl	VL53L4CD_RdWord
 1971              	.LVL251:
 670:Drivers/VL53L4CD_ULD_Driver/VL53L4CD_api.c **** 			VL53L4CD_MIN_COUNT_RATE_RTN_LIMIT_MCPS, &tmp);
 671:Drivers/VL53L4CD_ULD_Driver/VL53L4CD_api.c **** 	*p_signal_kcps = tmp <<3;
 1972              		.loc 1 671 2 is_stmt 1 view .LVU591
 1973              		.loc 1 671 23 is_stmt 0 view .LVU592
 1974 0016 BDF80630 		ldrh	r3, [sp, #6]
 1975 001a DB00     		lsls	r3, r3, #3
 1976              		.loc 1 671 17 view .LVU593
 1977 001c 2380     		strh	r3, [r4]	@ movhi
 672:Drivers/VL53L4CD_ULD_Driver/VL53L4CD_api.c **** 
 673:Drivers/VL53L4CD_ULD_Driver/VL53L4CD_api.c **** 	return status;
 1978              		.loc 1 673 2 is_stmt 1 view .LVU594
 674:Drivers/VL53L4CD_ULD_Driver/VL53L4CD_api.c **** }
 1979              		.loc 1 674 1 is_stmt 0 view .LVU595
 1980 001e 02B0     		add	sp, sp, #8
 1981              	.LCFI36:
 1982              		.cfi_def_cfa_offset 8
 1983              		@ sp needed
 1984 0020 10BD     		pop	{r4, pc}
 1985              		.loc 1 674 1 view .LVU596
 1986              		.cfi_endproc
 1987              	.LFE148:
 1989              		.section	.text.VL53L4CD_SetSigmaThreshold,"ax",%progbits
 1990              		.align	1
 1991              		.global	VL53L4CD_SetSigmaThreshold
 1992              		.syntax unified
 1993              		.thumb
 1994              		.thumb_func
 1996              	VL53L4CD_SetSigmaThreshold:
 1997              	.LVL252:
 1998              	.LFB149:
 675:Drivers/VL53L4CD_ULD_Driver/VL53L4CD_api.c **** 
 676:Drivers/VL53L4CD_ULD_Driver/VL53L4CD_api.c **** VL53L4CD_Error VL53L4CD_SetSigmaThreshold(
ARM GAS  C:\Users\Dell\AppData\Local\Temp\ccer9IQj.s 			page 50


 677:Drivers/VL53L4CD_ULD_Driver/VL53L4CD_api.c **** 		Dev_t dev,
 678:Drivers/VL53L4CD_ULD_Driver/VL53L4CD_api.c **** 		uint16_t 	sigma_mm)
 679:Drivers/VL53L4CD_ULD_Driver/VL53L4CD_api.c **** {
 1999              		.loc 1 679 1 is_stmt 1 view -0
 2000              		.cfi_startproc
 2001              		@ args = 0, pretend = 0, frame = 0
 2002              		@ frame_needed = 0, uses_anonymous_args = 0
 680:Drivers/VL53L4CD_ULD_Driver/VL53L4CD_api.c **** 	VL53L4CD_Error status = VL53L4CD_ERROR_NONE;
 2003              		.loc 1 680 2 view .LVU598
 681:Drivers/VL53L4CD_ULD_Driver/VL53L4CD_api.c **** 
 682:Drivers/VL53L4CD_ULD_Driver/VL53L4CD_api.c **** 	if(sigma_mm>(uint16_t)((uint16_t)0xFFFF>>2))
 2004              		.loc 1 682 2 view .LVU599
 2005              		.loc 1 682 4 is_stmt 0 view .LVU600
 2006 0000 B1F5804F 		cmp	r1, #16384
 2007 0004 01D3     		bcc	.L94
 683:Drivers/VL53L4CD_ULD_Driver/VL53L4CD_api.c **** 	{
 684:Drivers/VL53L4CD_ULD_Driver/VL53L4CD_api.c **** 		status |= (uint8_t)VL53L4CD_ERROR_INVALID_ARGUMENT;
 2008              		.loc 1 684 10 view .LVU601
 2009 0006 FE20     		movs	r0, #254
 2010              	.LVL253:
 685:Drivers/VL53L4CD_ULD_Driver/VL53L4CD_api.c **** 	}
 686:Drivers/VL53L4CD_ULD_Driver/VL53L4CD_api.c **** 	else
 687:Drivers/VL53L4CD_ULD_Driver/VL53L4CD_api.c **** 	{
 688:Drivers/VL53L4CD_ULD_Driver/VL53L4CD_api.c **** 		status |= VL53L4CD_WrWord(dev,
 689:Drivers/VL53L4CD_ULD_Driver/VL53L4CD_api.c **** 			VL53L4CD_RANGE_CONFIG__SIGMA_THRESH, sigma_mm<<2);
 690:Drivers/VL53L4CD_ULD_Driver/VL53L4CD_api.c **** 	}
 691:Drivers/VL53L4CD_ULD_Driver/VL53L4CD_api.c **** 
 692:Drivers/VL53L4CD_ULD_Driver/VL53L4CD_api.c **** 	return status;
 2011              		.loc 1 692 2 is_stmt 1 view .LVU602
 693:Drivers/VL53L4CD_ULD_Driver/VL53L4CD_api.c **** }
 2012              		.loc 1 693 1 is_stmt 0 view .LVU603
 2013 0008 7047     		bx	lr
 2014              	.LVL254:
 2015              	.L94:
 679:Drivers/VL53L4CD_ULD_Driver/VL53L4CD_api.c **** 	VL53L4CD_Error status = VL53L4CD_ERROR_NONE;
 2016              		.loc 1 679 1 view .LVU604
 2017 000a 08B5     		push	{r3, lr}
 2018              	.LCFI37:
 2019              		.cfi_def_cfa_offset 8
 2020              		.cfi_offset 3, -8
 2021              		.cfi_offset 14, -4
 688:Drivers/VL53L4CD_ULD_Driver/VL53L4CD_api.c **** 			VL53L4CD_RANGE_CONFIG__SIGMA_THRESH, sigma_mm<<2);
 2022              		.loc 1 688 3 is_stmt 1 view .LVU605
 688:Drivers/VL53L4CD_ULD_Driver/VL53L4CD_api.c **** 			VL53L4CD_RANGE_CONFIG__SIGMA_THRESH, sigma_mm<<2);
 2023              		.loc 1 688 13 is_stmt 0 view .LVU606
 2024 000c 8900     		lsls	r1, r1, #2
 2025              	.LVL255:
 688:Drivers/VL53L4CD_ULD_Driver/VL53L4CD_api.c **** 			VL53L4CD_RANGE_CONFIG__SIGMA_THRESH, sigma_mm<<2);
 2026              		.loc 1 688 13 view .LVU607
 2027 000e 8AB2     		uxth	r2, r1
 2028 0010 6421     		movs	r1, #100
 2029 0012 FFF7FEFF 		bl	VL53L4CD_WrWord
 2030              	.LVL256:
 692:Drivers/VL53L4CD_ULD_Driver/VL53L4CD_api.c **** }
 2031              		.loc 1 692 2 is_stmt 1 view .LVU608
 2032              		.loc 1 693 1 is_stmt 0 view .LVU609
 2033 0016 08BD     		pop	{r3, pc}
ARM GAS  C:\Users\Dell\AppData\Local\Temp\ccer9IQj.s 			page 51


 2034              		.cfi_endproc
 2035              	.LFE149:
 2037              		.section	.text.VL53L4CD_GetSigmaThreshold,"ax",%progbits
 2038              		.align	1
 2039              		.global	VL53L4CD_GetSigmaThreshold
 2040              		.syntax unified
 2041              		.thumb
 2042              		.thumb_func
 2044              	VL53L4CD_GetSigmaThreshold:
 2045              	.LVL257:
 2046              	.LFB150:
 694:Drivers/VL53L4CD_ULD_Driver/VL53L4CD_api.c **** 
 695:Drivers/VL53L4CD_ULD_Driver/VL53L4CD_api.c **** VL53L4CD_Error VL53L4CD_GetSigmaThreshold(
 696:Drivers/VL53L4CD_ULD_Driver/VL53L4CD_api.c **** 		Dev_t dev,
 697:Drivers/VL53L4CD_ULD_Driver/VL53L4CD_api.c **** 		uint16_t 	*p_sigma_mm)
 698:Drivers/VL53L4CD_ULD_Driver/VL53L4CD_api.c **** {
 2047              		.loc 1 698 1 is_stmt 1 view -0
 2048              		.cfi_startproc
 2049              		@ args = 0, pretend = 0, frame = 0
 2050              		@ frame_needed = 0, uses_anonymous_args = 0
 2051              		.loc 1 698 1 is_stmt 0 view .LVU611
 2052 0000 10B5     		push	{r4, lr}
 2053              	.LCFI38:
 2054              		.cfi_def_cfa_offset 8
 2055              		.cfi_offset 4, -8
 2056              		.cfi_offset 14, -4
 2057 0002 0C46     		mov	r4, r1
 699:Drivers/VL53L4CD_ULD_Driver/VL53L4CD_api.c **** 	VL53L4CD_Error status = VL53L4CD_ERROR_NONE;
 2058              		.loc 1 699 2 is_stmt 1 view .LVU612
 2059              	.LVL258:
 700:Drivers/VL53L4CD_ULD_Driver/VL53L4CD_api.c **** 
 701:Drivers/VL53L4CD_ULD_Driver/VL53L4CD_api.c **** 	status += VL53L4CD_RdWord(dev,
 2060              		.loc 1 701 2 view .LVU613
 2061              		.loc 1 701 12 is_stmt 0 view .LVU614
 2062 0004 0A46     		mov	r2, r1
 2063 0006 6421     		movs	r1, #100
 2064              	.LVL259:
 2065              		.loc 1 701 12 view .LVU615
 2066 0008 FFF7FEFF 		bl	VL53L4CD_RdWord
 2067              	.LVL260:
 702:Drivers/VL53L4CD_ULD_Driver/VL53L4CD_api.c **** 			VL53L4CD_RANGE_CONFIG__SIGMA_THRESH, p_sigma_mm);
 703:Drivers/VL53L4CD_ULD_Driver/VL53L4CD_api.c **** 	*p_sigma_mm = *p_sigma_mm >> 2;
 2068              		.loc 1 703 2 is_stmt 1 view .LVU616
 2069              		.loc 1 703 16 is_stmt 0 view .LVU617
 2070 000c 2388     		ldrh	r3, [r4]
 2071              		.loc 1 703 14 view .LVU618
 2072 000e 9B08     		lsrs	r3, r3, #2
 2073 0010 2380     		strh	r3, [r4]	@ movhi
 704:Drivers/VL53L4CD_ULD_Driver/VL53L4CD_api.c **** 
 705:Drivers/VL53L4CD_ULD_Driver/VL53L4CD_api.c **** 	return status;
 2074              		.loc 1 705 2 is_stmt 1 view .LVU619
 706:Drivers/VL53L4CD_ULD_Driver/VL53L4CD_api.c **** }
 2075              		.loc 1 706 1 is_stmt 0 view .LVU620
 2076 0012 10BD     		pop	{r4, pc}
 2077              		.loc 1 706 1 view .LVU621
 2078              		.cfi_endproc
 2079              	.LFE150:
ARM GAS  C:\Users\Dell\AppData\Local\Temp\ccer9IQj.s 			page 52


 2081              		.section	.text.VL53L4CD_StartTemperatureUpdate,"ax",%progbits
 2082              		.align	1
 2083              		.global	VL53L4CD_StartTemperatureUpdate
 2084              		.syntax unified
 2085              		.thumb
 2086              		.thumb_func
 2088              	VL53L4CD_StartTemperatureUpdate:
 2089              	.LVL261:
 2090              	.LFB151:
 707:Drivers/VL53L4CD_ULD_Driver/VL53L4CD_api.c **** 
 708:Drivers/VL53L4CD_ULD_Driver/VL53L4CD_api.c **** VL53L4CD_Error VL53L4CD_StartTemperatureUpdate(
 709:Drivers/VL53L4CD_ULD_Driver/VL53L4CD_api.c **** 		Dev_t dev)
 710:Drivers/VL53L4CD_ULD_Driver/VL53L4CD_api.c **** {
 2091              		.loc 1 710 1 is_stmt 1 view -0
 2092              		.cfi_startproc
 2093              		@ args = 0, pretend = 0, frame = 8
 2094              		@ frame_needed = 0, uses_anonymous_args = 0
 2095              		.loc 1 710 1 is_stmt 0 view .LVU623
 2096 0000 F0B5     		push	{r4, r5, r6, r7, lr}
 2097              	.LCFI39:
 2098              		.cfi_def_cfa_offset 20
 2099              		.cfi_offset 4, -20
 2100              		.cfi_offset 5, -16
 2101              		.cfi_offset 6, -12
 2102              		.cfi_offset 7, -8
 2103              		.cfi_offset 14, -4
 2104 0002 83B0     		sub	sp, sp, #12
 2105              	.LCFI40:
 2106              		.cfi_def_cfa_offset 32
 2107 0004 0546     		mov	r5, r0
 711:Drivers/VL53L4CD_ULD_Driver/VL53L4CD_api.c **** 	VL53L4CD_Error status = VL53L4CD_ERROR_NONE;
 2108              		.loc 1 711 2 is_stmt 1 view .LVU624
 2109              	.LVL262:
 712:Drivers/VL53L4CD_ULD_Driver/VL53L4CD_api.c **** 	uint8_t tmp = 0, continue_loop = 1;
 2110              		.loc 1 712 2 view .LVU625
 2111              		.loc 1 712 10 is_stmt 0 view .LVU626
 2112 0006 0026     		movs	r6, #0
 2113 0008 8DF80760 		strb	r6, [sp, #7]
 2114              	.LVL263:
 713:Drivers/VL53L4CD_ULD_Driver/VL53L4CD_api.c **** 	uint16_t i = 0;
 2115              		.loc 1 713 2 is_stmt 1 view .LVU627
 714:Drivers/VL53L4CD_ULD_Driver/VL53L4CD_api.c **** 
 715:Drivers/VL53L4CD_ULD_Driver/VL53L4CD_api.c **** 	status |= VL53L4CD_WrByte(dev,
 2116              		.loc 1 715 2 view .LVU628
 2117              		.loc 1 715 12 is_stmt 0 view .LVU629
 2118 000c 8122     		movs	r2, #129
 2119 000e 0821     		movs	r1, #8
 2120 0010 FFF7FEFF 		bl	VL53L4CD_WrByte
 2121              	.LVL264:
 2122              		.loc 1 715 12 view .LVU630
 2123 0014 0446     		mov	r4, r0
 2124              	.LVL265:
 716:Drivers/VL53L4CD_ULD_Driver/VL53L4CD_api.c **** 		VL53L4CD_VHV_CONFIG__TIMEOUT_MACROP_LOOP_BOUND, (uint8_t)0x81);
 717:Drivers/VL53L4CD_ULD_Driver/VL53L4CD_api.c **** 	status |= VL53L4CD_WrByte(dev, 0x0B, (uint8_t)0x92);
 2125              		.loc 1 717 2 is_stmt 1 view .LVU631
 2126              		.loc 1 717 12 is_stmt 0 view .LVU632
 2127 0016 9222     		movs	r2, #146
ARM GAS  C:\Users\Dell\AppData\Local\Temp\ccer9IQj.s 			page 53


 2128 0018 0B21     		movs	r1, #11
 2129 001a 2846     		mov	r0, r5
 2130 001c FFF7FEFF 		bl	VL53L4CD_WrByte
 2131              	.LVL266:
 2132              		.loc 1 717 9 view .LVU633
 2133 0020 0443     		orrs	r4, r4, r0
 2134              	.LVL267:
 2135              		.loc 1 717 9 view .LVU634
 2136 0022 E4B2     		uxtb	r4, r4
 2137              	.LVL268:
 718:Drivers/VL53L4CD_ULD_Driver/VL53L4CD_api.c **** 	status |= VL53L4CD_WrByte(dev, VL53L4CD_SYSTEM_START, (uint8_t)0x40);
 2138              		.loc 1 718 2 is_stmt 1 view .LVU635
 2139              		.loc 1 718 12 is_stmt 0 view .LVU636
 2140 0024 4022     		movs	r2, #64
 2141 0026 8721     		movs	r1, #135
 2142 0028 2846     		mov	r0, r5
 2143 002a FFF7FEFF 		bl	VL53L4CD_WrByte
 2144              	.LVL269:
 2145              		.loc 1 718 9 view .LVU637
 2146 002e 0443     		orrs	r4, r4, r0
 2147              	.LVL270:
 2148              		.loc 1 718 9 view .LVU638
 2149 0030 E4B2     		uxtb	r4, r4
 2150              	.LVL271:
 712:Drivers/VL53L4CD_ULD_Driver/VL53L4CD_api.c **** 	uint16_t i = 0;
 2151              		.loc 1 712 19 view .LVU639
 2152 0032 0127     		movs	r7, #1
 2153 0034 05E0     		b	.L99
 2154              	.LVL272:
 2155              	.L100:
 719:Drivers/VL53L4CD_ULD_Driver/VL53L4CD_api.c **** 
 720:Drivers/VL53L4CD_ULD_Driver/VL53L4CD_api.c **** 	do{
 721:Drivers/VL53L4CD_ULD_Driver/VL53L4CD_api.c **** 			status |= VL53L4CD_CheckForDataReady(dev, &tmp);
 722:Drivers/VL53L4CD_ULD_Driver/VL53L4CD_api.c **** 			if(tmp == (uint8_t)1) /* Data ready */
 723:Drivers/VL53L4CD_ULD_Driver/VL53L4CD_api.c **** 			{
 724:Drivers/VL53L4CD_ULD_Driver/VL53L4CD_api.c **** 					continue_loop = (uint8_t)0;
 2156              		.loc 1 724 20 view .LVU640
 2157 0036 0027     		movs	r7, #0
 2158              	.LVL273:
 2159              	.L98:
 725:Drivers/VL53L4CD_ULD_Driver/VL53L4CD_api.c **** 			}
 726:Drivers/VL53L4CD_ULD_Driver/VL53L4CD_api.c **** 			else if(i < (uint16_t)1000)       /* Wait for answer */
 727:Drivers/VL53L4CD_ULD_Driver/VL53L4CD_api.c **** 			{
 728:Drivers/VL53L4CD_ULD_Driver/VL53L4CD_api.c **** 					i++;
 729:Drivers/VL53L4CD_ULD_Driver/VL53L4CD_api.c **** 			}
 730:Drivers/VL53L4CD_ULD_Driver/VL53L4CD_api.c **** 			else /* Timeout 1000ms reached */
 731:Drivers/VL53L4CD_ULD_Driver/VL53L4CD_api.c **** 			{
 732:Drivers/VL53L4CD_ULD_Driver/VL53L4CD_api.c **** 					continue_loop = (uint8_t)0;
 733:Drivers/VL53L4CD_ULD_Driver/VL53L4CD_api.c **** 					status = (uint8_t)VL53L4CD_ERROR_TIMEOUT;
 734:Drivers/VL53L4CD_ULD_Driver/VL53L4CD_api.c **** 			}
 735:Drivers/VL53L4CD_ULD_Driver/VL53L4CD_api.c **** 			WaitMs(dev, 1);
 2160              		.loc 1 735 4 is_stmt 1 view .LVU641
 2161 0038 0121     		movs	r1, #1
 2162 003a 2846     		mov	r0, r5
 2163 003c FFF7FEFF 		bl	WaitMs
 2164              	.LVL274:
 736:Drivers/VL53L4CD_ULD_Driver/VL53L4CD_api.c **** 	}while(continue_loop == (uint8_t)1);
ARM GAS  C:\Users\Dell\AppData\Local\Temp\ccer9IQj.s 			page 54


 2165              		.loc 1 736 8 view .LVU642
 2166              		.loc 1 736 2 is_stmt 0 view .LVU643
 2167 0040 9FB1     		cbz	r7, .L103
 2168              	.LVL275:
 2169              	.L99:
 720:Drivers/VL53L4CD_ULD_Driver/VL53L4CD_api.c **** 			status |= VL53L4CD_CheckForDataReady(dev, &tmp);
 2170              		.loc 1 720 2 is_stmt 1 view .LVU644
 721:Drivers/VL53L4CD_ULD_Driver/VL53L4CD_api.c **** 			if(tmp == (uint8_t)1) /* Data ready */
 2171              		.loc 1 721 4 view .LVU645
 721:Drivers/VL53L4CD_ULD_Driver/VL53L4CD_api.c **** 			if(tmp == (uint8_t)1) /* Data ready */
 2172              		.loc 1 721 14 is_stmt 0 view .LVU646
 2173 0042 0DF10701 		add	r1, sp, #7
 2174 0046 2846     		mov	r0, r5
 2175 0048 FFF7FEFF 		bl	VL53L4CD_CheckForDataReady
 2176              	.LVL276:
 721:Drivers/VL53L4CD_ULD_Driver/VL53L4CD_api.c **** 			if(tmp == (uint8_t)1) /* Data ready */
 2177              		.loc 1 721 11 view .LVU647
 2178 004c 0443     		orrs	r4, r4, r0
 2179              	.LVL277:
 721:Drivers/VL53L4CD_ULD_Driver/VL53L4CD_api.c **** 			if(tmp == (uint8_t)1) /* Data ready */
 2180              		.loc 1 721 11 view .LVU648
 2181 004e E4B2     		uxtb	r4, r4
 2182              	.LVL278:
 722:Drivers/VL53L4CD_ULD_Driver/VL53L4CD_api.c **** 			{
 2183              		.loc 1 722 4 is_stmt 1 view .LVU649
 722:Drivers/VL53L4CD_ULD_Driver/VL53L4CD_api.c **** 			{
 2184              		.loc 1 722 11 is_stmt 0 view .LVU650
 2185 0050 9DF80730 		ldrb	r3, [sp, #7]	@ zero_extendqisi2
 722:Drivers/VL53L4CD_ULD_Driver/VL53L4CD_api.c **** 			{
 2186              		.loc 1 722 6 view .LVU651
 2187 0054 012B     		cmp	r3, #1
 2188 0056 EED0     		beq	.L100
 726:Drivers/VL53L4CD_ULD_Driver/VL53L4CD_api.c **** 			{
 2189              		.loc 1 726 9 is_stmt 1 view .LVU652
 726:Drivers/VL53L4CD_ULD_Driver/VL53L4CD_api.c **** 			{
 2190              		.loc 1 726 11 is_stmt 0 view .LVU653
 2191 0058 B6F57A7F 		cmp	r6, #1000
 2192 005c 02D2     		bcs	.L101
 728:Drivers/VL53L4CD_ULD_Driver/VL53L4CD_api.c **** 			}
 2193              		.loc 1 728 6 is_stmt 1 view .LVU654
 728:Drivers/VL53L4CD_ULD_Driver/VL53L4CD_api.c **** 			}
 2194              		.loc 1 728 7 is_stmt 0 view .LVU655
 2195 005e 0136     		adds	r6, r6, #1
 2196              	.LVL279:
 728:Drivers/VL53L4CD_ULD_Driver/VL53L4CD_api.c **** 			}
 2197              		.loc 1 728 7 view .LVU656
 2198 0060 B6B2     		uxth	r6, r6
 2199              	.LVL280:
 728:Drivers/VL53L4CD_ULD_Driver/VL53L4CD_api.c **** 			}
 2200              		.loc 1 728 7 view .LVU657
 2201 0062 E9E7     		b	.L98
 2202              	.L101:
 732:Drivers/VL53L4CD_ULD_Driver/VL53L4CD_api.c **** 					status = (uint8_t)VL53L4CD_ERROR_TIMEOUT;
 2203              		.loc 1 732 20 view .LVU658
 2204 0064 0027     		movs	r7, #0
 2205              	.LVL281:
 733:Drivers/VL53L4CD_ULD_Driver/VL53L4CD_api.c **** 			}
ARM GAS  C:\Users\Dell\AppData\Local\Temp\ccer9IQj.s 			page 55


 2206              		.loc 1 733 13 view .LVU659
 2207 0066 FF24     		movs	r4, #255
 2208              	.LVL282:
 733:Drivers/VL53L4CD_ULD_Driver/VL53L4CD_api.c **** 			}
 2209              		.loc 1 733 13 view .LVU660
 2210 0068 E6E7     		b	.L98
 2211              	.LVL283:
 2212              	.L103:
 737:Drivers/VL53L4CD_ULD_Driver/VL53L4CD_api.c **** 
 738:Drivers/VL53L4CD_ULD_Driver/VL53L4CD_api.c **** 	status |= VL53L4CD_ClearInterrupt(dev);
 2213              		.loc 1 738 2 is_stmt 1 view .LVU661
 2214              		.loc 1 738 12 is_stmt 0 view .LVU662
 2215 006a 2846     		mov	r0, r5
 2216 006c FFF7FEFF 		bl	VL53L4CD_ClearInterrupt
 2217              	.LVL284:
 2218              		.loc 1 738 9 view .LVU663
 2219 0070 0443     		orrs	r4, r4, r0
 2220              	.LVL285:
 2221              		.loc 1 738 9 view .LVU664
 2222 0072 E4B2     		uxtb	r4, r4
 2223              	.LVL286:
 739:Drivers/VL53L4CD_ULD_Driver/VL53L4CD_api.c **** 	status |= VL53L4CD_StopRanging(dev);
 2224              		.loc 1 739 2 is_stmt 1 view .LVU665
 2225              		.loc 1 739 12 is_stmt 0 view .LVU666
 2226 0074 2846     		mov	r0, r5
 2227 0076 FFF7FEFF 		bl	VL53L4CD_StopRanging
 2228              	.LVL287:
 2229              		.loc 1 739 9 view .LVU667
 2230 007a 0443     		orrs	r4, r4, r0
 2231              	.LVL288:
 2232              		.loc 1 739 9 view .LVU668
 2233 007c E4B2     		uxtb	r4, r4
 2234              	.LVL289:
 740:Drivers/VL53L4CD_ULD_Driver/VL53L4CD_api.c **** 
 741:Drivers/VL53L4CD_ULD_Driver/VL53L4CD_api.c **** 	status += VL53L4CD_WrByte(dev,
 2235              		.loc 1 741 2 is_stmt 1 view .LVU669
 2236              		.loc 1 741 12 is_stmt 0 view .LVU670
 2237 007e 0922     		movs	r2, #9
 2238 0080 0821     		movs	r1, #8
 2239 0082 2846     		mov	r0, r5
 2240 0084 FFF7FEFF 		bl	VL53L4CD_WrByte
 2241              	.LVL290:
 2242              		.loc 1 741 9 view .LVU671
 2243 0088 0444     		add	r4, r4, r0
 2244              	.LVL291:
 2245              		.loc 1 741 9 view .LVU672
 2246 008a E4B2     		uxtb	r4, r4
 2247              	.LVL292:
 742:Drivers/VL53L4CD_ULD_Driver/VL53L4CD_api.c **** 		VL53L4CD_VHV_CONFIG__TIMEOUT_MACROP_LOOP_BOUND, 0x09);
 743:Drivers/VL53L4CD_ULD_Driver/VL53L4CD_api.c **** 	status += VL53L4CD_WrByte(dev, 0x0B, 0);
 2248              		.loc 1 743 2 is_stmt 1 view .LVU673
 2249              		.loc 1 743 12 is_stmt 0 view .LVU674
 2250 008c 0022     		movs	r2, #0
 2251 008e 0B21     		movs	r1, #11
 2252 0090 2846     		mov	r0, r5
 2253 0092 FFF7FEFF 		bl	VL53L4CD_WrByte
 2254              	.LVL293:
ARM GAS  C:\Users\Dell\AppData\Local\Temp\ccer9IQj.s 			page 56


 2255              		.loc 1 743 9 view .LVU675
 2256 0096 2044     		add	r0, r0, r4
 2257              	.LVL294:
 744:Drivers/VL53L4CD_ULD_Driver/VL53L4CD_api.c **** 	return status;
 2258              		.loc 1 744 2 is_stmt 1 view .LVU676
 745:Drivers/VL53L4CD_ULD_Driver/VL53L4CD_api.c **** }
 2259              		.loc 1 745 1 is_stmt 0 view .LVU677
 2260 0098 C0B2     		uxtb	r0, r0
 2261              		.loc 1 745 1 view .LVU678
 2262 009a 03B0     		add	sp, sp, #12
 2263              	.LCFI41:
 2264              		.cfi_def_cfa_offset 20
 2265              		@ sp needed
 2266 009c F0BD     		pop	{r4, r5, r6, r7, pc}
 2267              		.loc 1 745 1 view .LVU679
 2268              		.cfi_endproc
 2269              	.LFE151:
 2271              		.section	.rodata
 2272              		.align	2
 2273              		.set	.LANCHOR1,. + 0
 2274              	.LC0:
 2275 0000 FFFFFF05 		.ascii	"\377\377\377\005\002\004\001\007\003\000\377\377\011"
 2275      02040107 
 2275      0300FFFF 
 2275      09
 2276 000d 0DFFFFFF 		.ascii	"\015\377\377\377\377\012\006\377\377\013\014"
 2276      FF0A06FF 
 2276      FF0B0C
 2277              		.section	.rodata.VL53L4CD_DEFAULT_CONFIGURATION,"a"
 2278              		.align	2
 2279              		.set	.LANCHOR0,. + 0
 2282              	VL53L4CD_DEFAULT_CONFIGURATION:
 2283 0000 00000011 		.ascii	"\000\000\000\021\002\000\002\010\000\010\020\001\001"
 2283      02000208 
 2283      00081001 
 2283      01
 2284 000d 00000000 		.ascii	"\000\000\000\000\377\000\017\000\000\000\000\000 \013"
 2284      FF000F00 
 2284      00000000 
 2284      200B
 2285 001b 00000214 		.ascii	"\000\000\002\024!\000\000\005\000\000\000\000\310\000"
 2285      21000005 
 2285      00000000 
 2285      C800
 2286 0029 0038FF01 		.ascii	"\0008\377\001\000\010\000\000\001\314\007\001\361\005"
 2286      00080000 
 2286      01CC0701 
 2286      F105
 2287 0037 00A00080 		.ascii	"\000\240\000\200\0108\000\000\000\000\017\211\000\000"
 2287      08380000 
 2287      00000F89 
 2287      0000
 2288 0045 00000000 		.ascii	"\000\000\000\000\000\001\007\005\006\006\000\000\002"
 2288      00010705 
 2288      06060000 
 2288      02
 2289 0052 C7FF9B00 		.ascii	"\307\377\233\000\000\000\001\000\000"
ARM GAS  C:\Users\Dell\AppData\Local\Temp\ccer9IQj.s 			page 57


 2289      00000100 
 2289      00
 2290              		.text
 2291              	.Letext0:
 2292              		.file 2 "c:\\program files (x86)\\gnu arm embedded toolchain\\10 2021.10\\arm-none-eabi\\include\\
 2293              		.file 3 "c:\\program files (x86)\\gnu arm embedded toolchain\\10 2021.10\\arm-none-eabi\\include\\
 2294              		.file 4 "c:\\program files (x86)\\gnu arm embedded toolchain\\10 2021.10\\arm-none-eabi\\include\\
 2295              		.file 5 "Core/Inc/platform.h"
 2296              		.file 6 "Drivers/VL53L4CD_ULD_Driver/vl53l4cd_api.h"
ARM GAS  C:\Users\Dell\AppData\Local\Temp\ccer9IQj.s 			page 58

